ARM GAS  /tmp/cc956sXB.s 			page 1


   1              		.cpu cortex-m3
   2              		.eabi_attribute 20, 1
   3              		.eabi_attribute 21, 1
   4              		.eabi_attribute 23, 3
   5              		.eabi_attribute 24, 1
   6              		.eabi_attribute 25, 1
   7              		.eabi_attribute 26, 1
   8              		.eabi_attribute 30, 1
   9              		.eabi_attribute 34, 1
  10              		.eabi_attribute 18, 4
  11              		.file	"stm32f1xx_hal_pcd.c"
  12              		.text
  13              	.Ltext0:
  14              		.cfi_sections	.debug_frame
  15              		.section	.text.HAL_PCD_MspInit,"ax",%progbits
  16              		.align	1
  17              		.weak	HAL_PCD_MspInit
  18              		.syntax unified
  19              		.thumb
  20              		.thumb_func
  21              		.fpu softvfp
  23              	HAL_PCD_MspInit:
  24              	.LFB66:
  25              		.file 1 "Drivers/STM32F1xx_HAL_Driver/Src/stm32f1xx_hal_pcd.c"
   1:Drivers/STM32F1xx_HAL_Driver/Src/stm32f1xx_hal_pcd.c **** /**
   2:Drivers/STM32F1xx_HAL_Driver/Src/stm32f1xx_hal_pcd.c ****   ******************************************************************************
   3:Drivers/STM32F1xx_HAL_Driver/Src/stm32f1xx_hal_pcd.c ****   * @file    stm32f1xx_hal_pcd.c
   4:Drivers/STM32F1xx_HAL_Driver/Src/stm32f1xx_hal_pcd.c ****   * @author  MCD Application Team
   5:Drivers/STM32F1xx_HAL_Driver/Src/stm32f1xx_hal_pcd.c ****   * @version V1.1.1
   6:Drivers/STM32F1xx_HAL_Driver/Src/stm32f1xx_hal_pcd.c ****   * @date    12-May-2017
   7:Drivers/STM32F1xx_HAL_Driver/Src/stm32f1xx_hal_pcd.c ****   * @brief   PCD HAL module driver.
   8:Drivers/STM32F1xx_HAL_Driver/Src/stm32f1xx_hal_pcd.c ****   *          This file provides firmware functions to manage the following 
   9:Drivers/STM32F1xx_HAL_Driver/Src/stm32f1xx_hal_pcd.c ****   *          functionalities of the USB Peripheral Controller:
  10:Drivers/STM32F1xx_HAL_Driver/Src/stm32f1xx_hal_pcd.c ****   *           + Initialization and de-initialization functions
  11:Drivers/STM32F1xx_HAL_Driver/Src/stm32f1xx_hal_pcd.c ****   *           + IO operation functions
  12:Drivers/STM32F1xx_HAL_Driver/Src/stm32f1xx_hal_pcd.c ****   *           + Peripheral Control functions 
  13:Drivers/STM32F1xx_HAL_Driver/Src/stm32f1xx_hal_pcd.c ****   *           + Peripheral State functions
  14:Drivers/STM32F1xx_HAL_Driver/Src/stm32f1xx_hal_pcd.c ****   *
  15:Drivers/STM32F1xx_HAL_Driver/Src/stm32f1xx_hal_pcd.c ****   @verbatim
  16:Drivers/STM32F1xx_HAL_Driver/Src/stm32f1xx_hal_pcd.c ****   ==============================================================================
  17:Drivers/STM32F1xx_HAL_Driver/Src/stm32f1xx_hal_pcd.c ****                     ##### How to use this driver #####
  18:Drivers/STM32F1xx_HAL_Driver/Src/stm32f1xx_hal_pcd.c ****   ==============================================================================
  19:Drivers/STM32F1xx_HAL_Driver/Src/stm32f1xx_hal_pcd.c ****     [..]
  20:Drivers/STM32F1xx_HAL_Driver/Src/stm32f1xx_hal_pcd.c ****       The PCD HAL driver can be used as follows:
  21:Drivers/STM32F1xx_HAL_Driver/Src/stm32f1xx_hal_pcd.c **** 
  22:Drivers/STM32F1xx_HAL_Driver/Src/stm32f1xx_hal_pcd.c ****      (#) Declare a PCD_HandleTypeDef handle structure, for example:
  23:Drivers/STM32F1xx_HAL_Driver/Src/stm32f1xx_hal_pcd.c ****          PCD_HandleTypeDef  hpcd;
  24:Drivers/STM32F1xx_HAL_Driver/Src/stm32f1xx_hal_pcd.c **** 
  25:Drivers/STM32F1xx_HAL_Driver/Src/stm32f1xx_hal_pcd.c ****      (#) Fill parameters of Init structure in HCD handle
  26:Drivers/STM32F1xx_HAL_Driver/Src/stm32f1xx_hal_pcd.c **** 
  27:Drivers/STM32F1xx_HAL_Driver/Src/stm32f1xx_hal_pcd.c ****      (#) Call HAL_PCD_Init() API to initialize the HCD peripheral (Core, Device core, ...)
  28:Drivers/STM32F1xx_HAL_Driver/Src/stm32f1xx_hal_pcd.c **** 
  29:Drivers/STM32F1xx_HAL_Driver/Src/stm32f1xx_hal_pcd.c ****      (#) Initialize the PCD low level resources through the HAL_PCD_MspInit() API:
  30:Drivers/STM32F1xx_HAL_Driver/Src/stm32f1xx_hal_pcd.c ****          (##) Enable the PCD/USB Low Level interface clock using the following macro
  31:Drivers/STM32F1xx_HAL_Driver/Src/stm32f1xx_hal_pcd.c ****               (+++) __HAL_RCC_USB_CLK_ENABLE(); For USB Device FS peripheral available
  32:Drivers/STM32F1xx_HAL_Driver/Src/stm32f1xx_hal_pcd.c ****                     on STM32F102xx and STM32F103xx devices
  33:Drivers/STM32F1xx_HAL_Driver/Src/stm32f1xx_hal_pcd.c ****               (+++) __HAL_RCC_USB_OTG_FS_CLK_ENABLE(); For USB OTG FS peripheral available
ARM GAS  /tmp/cc956sXB.s 			page 2


  34:Drivers/STM32F1xx_HAL_Driver/Src/stm32f1xx_hal_pcd.c ****                     on STM32F105xx and STM32F107xx devices 
  35:Drivers/STM32F1xx_HAL_Driver/Src/stm32f1xx_hal_pcd.c **** 
  36:Drivers/STM32F1xx_HAL_Driver/Src/stm32f1xx_hal_pcd.c ****          (##) Initialize the related GPIO clocks
  37:Drivers/STM32F1xx_HAL_Driver/Src/stm32f1xx_hal_pcd.c ****          (##) Configure PCD pin-out
  38:Drivers/STM32F1xx_HAL_Driver/Src/stm32f1xx_hal_pcd.c ****          (##) Configure PCD NVIC interrupt
  39:Drivers/STM32F1xx_HAL_Driver/Src/stm32f1xx_hal_pcd.c **** 
  40:Drivers/STM32F1xx_HAL_Driver/Src/stm32f1xx_hal_pcd.c ****      (#)Associate the Upper USB device stack to the HAL PCD Driver:
  41:Drivers/STM32F1xx_HAL_Driver/Src/stm32f1xx_hal_pcd.c ****          (##) hpcd.pData = pdev;
  42:Drivers/STM32F1xx_HAL_Driver/Src/stm32f1xx_hal_pcd.c **** 
  43:Drivers/STM32F1xx_HAL_Driver/Src/stm32f1xx_hal_pcd.c ****      (#)Enable HCD transmission and reception:
  44:Drivers/STM32F1xx_HAL_Driver/Src/stm32f1xx_hal_pcd.c ****          (##) HAL_PCD_Start();
  45:Drivers/STM32F1xx_HAL_Driver/Src/stm32f1xx_hal_pcd.c **** 
  46:Drivers/STM32F1xx_HAL_Driver/Src/stm32f1xx_hal_pcd.c ****   @endverbatim
  47:Drivers/STM32F1xx_HAL_Driver/Src/stm32f1xx_hal_pcd.c ****   ******************************************************************************
  48:Drivers/STM32F1xx_HAL_Driver/Src/stm32f1xx_hal_pcd.c ****   * @attention
  49:Drivers/STM32F1xx_HAL_Driver/Src/stm32f1xx_hal_pcd.c ****   *
  50:Drivers/STM32F1xx_HAL_Driver/Src/stm32f1xx_hal_pcd.c ****   * <h2><center>&copy; COPYRIGHT(c) 2016 STMicroelectronics</center></h2>
  51:Drivers/STM32F1xx_HAL_Driver/Src/stm32f1xx_hal_pcd.c ****   *
  52:Drivers/STM32F1xx_HAL_Driver/Src/stm32f1xx_hal_pcd.c ****   * Redistribution and use in source and binary forms, with or without modification,
  53:Drivers/STM32F1xx_HAL_Driver/Src/stm32f1xx_hal_pcd.c ****   * are permitted provided that the following conditions are met:
  54:Drivers/STM32F1xx_HAL_Driver/Src/stm32f1xx_hal_pcd.c ****   *   1. Redistributions of source code must retain the above copyright notice,
  55:Drivers/STM32F1xx_HAL_Driver/Src/stm32f1xx_hal_pcd.c ****   *      this list of conditions and the following disclaimer.
  56:Drivers/STM32F1xx_HAL_Driver/Src/stm32f1xx_hal_pcd.c ****   *   2. Redistributions in binary form must reproduce the above copyright notice,
  57:Drivers/STM32F1xx_HAL_Driver/Src/stm32f1xx_hal_pcd.c ****   *      this list of conditions and the following disclaimer in the documentation
  58:Drivers/STM32F1xx_HAL_Driver/Src/stm32f1xx_hal_pcd.c ****   *      and/or other materials provided with the distribution.
  59:Drivers/STM32F1xx_HAL_Driver/Src/stm32f1xx_hal_pcd.c ****   *   3. Neither the name of STMicroelectronics nor the names of its contributors
  60:Drivers/STM32F1xx_HAL_Driver/Src/stm32f1xx_hal_pcd.c ****   *      may be used to endorse or promote products derived from this software
  61:Drivers/STM32F1xx_HAL_Driver/Src/stm32f1xx_hal_pcd.c ****   *      without specific prior written permission.
  62:Drivers/STM32F1xx_HAL_Driver/Src/stm32f1xx_hal_pcd.c ****   *
  63:Drivers/STM32F1xx_HAL_Driver/Src/stm32f1xx_hal_pcd.c ****   * THIS SOFTWARE IS PROVIDED BY THE COPYRIGHT HOLDERS AND CONTRIBUTORS "AS IS"
  64:Drivers/STM32F1xx_HAL_Driver/Src/stm32f1xx_hal_pcd.c ****   * AND ANY EXPRESS OR IMPLIED WARRANTIES, INCLUDING, BUT NOT LIMITED TO, THE
  65:Drivers/STM32F1xx_HAL_Driver/Src/stm32f1xx_hal_pcd.c ****   * IMPLIED WARRANTIES OF MERCHANTABILITY AND FITNESS FOR A PARTICULAR PURPOSE ARE
  66:Drivers/STM32F1xx_HAL_Driver/Src/stm32f1xx_hal_pcd.c ****   * DISCLAIMED. IN NO EVENT SHALL THE COPYRIGHT HOLDER OR CONTRIBUTORS BE LIABLE
  67:Drivers/STM32F1xx_HAL_Driver/Src/stm32f1xx_hal_pcd.c ****   * FOR ANY DIRECT, INDIRECT, INCIDENTAL, SPECIAL, EXEMPLARY, OR CONSEQUENTIAL
  68:Drivers/STM32F1xx_HAL_Driver/Src/stm32f1xx_hal_pcd.c ****   * DAMAGES (INCLUDING, BUT NOT LIMITED TO, PROCUREMENT OF SUBSTITUTE GOODS OR
  69:Drivers/STM32F1xx_HAL_Driver/Src/stm32f1xx_hal_pcd.c ****   * SERVICES; LOSS OF USE, DATA, OR PROFITS; OR BUSINESS INTERRUPTION) HOWEVER
  70:Drivers/STM32F1xx_HAL_Driver/Src/stm32f1xx_hal_pcd.c ****   * CAUSED AND ON ANY THEORY OF LIABILITY, WHETHER IN CONTRACT, STRICT LIABILITY,
  71:Drivers/STM32F1xx_HAL_Driver/Src/stm32f1xx_hal_pcd.c ****   * OR TORT (INCLUDING NEGLIGENCE OR OTHERWISE) ARISING IN ANY WAY OUT OF THE USE
  72:Drivers/STM32F1xx_HAL_Driver/Src/stm32f1xx_hal_pcd.c ****   * OF THIS SOFTWARE, EVEN IF ADVISED OF THE POSSIBILITY OF SUCH DAMAGE.
  73:Drivers/STM32F1xx_HAL_Driver/Src/stm32f1xx_hal_pcd.c ****   *
  74:Drivers/STM32F1xx_HAL_Driver/Src/stm32f1xx_hal_pcd.c ****   ******************************************************************************
  75:Drivers/STM32F1xx_HAL_Driver/Src/stm32f1xx_hal_pcd.c ****   */
  76:Drivers/STM32F1xx_HAL_Driver/Src/stm32f1xx_hal_pcd.c **** 
  77:Drivers/STM32F1xx_HAL_Driver/Src/stm32f1xx_hal_pcd.c **** /* Includes ------------------------------------------------------------------*/
  78:Drivers/STM32F1xx_HAL_Driver/Src/stm32f1xx_hal_pcd.c **** #include "stm32f1xx_hal.h"
  79:Drivers/STM32F1xx_HAL_Driver/Src/stm32f1xx_hal_pcd.c **** 
  80:Drivers/STM32F1xx_HAL_Driver/Src/stm32f1xx_hal_pcd.c **** /** @addtogroup STM32F1xx_HAL_Driver
  81:Drivers/STM32F1xx_HAL_Driver/Src/stm32f1xx_hal_pcd.c ****   * @{
  82:Drivers/STM32F1xx_HAL_Driver/Src/stm32f1xx_hal_pcd.c ****   */
  83:Drivers/STM32F1xx_HAL_Driver/Src/stm32f1xx_hal_pcd.c **** 
  84:Drivers/STM32F1xx_HAL_Driver/Src/stm32f1xx_hal_pcd.c **** 
  85:Drivers/STM32F1xx_HAL_Driver/Src/stm32f1xx_hal_pcd.c **** 
  86:Drivers/STM32F1xx_HAL_Driver/Src/stm32f1xx_hal_pcd.c **** #ifdef HAL_PCD_MODULE_ENABLED
  87:Drivers/STM32F1xx_HAL_Driver/Src/stm32f1xx_hal_pcd.c **** 
  88:Drivers/STM32F1xx_HAL_Driver/Src/stm32f1xx_hal_pcd.c **** #if defined(STM32F102x6) || defined(STM32F102xB) || \
  89:Drivers/STM32F1xx_HAL_Driver/Src/stm32f1xx_hal_pcd.c ****     defined(STM32F103x6) || defined(STM32F103xB) || \
  90:Drivers/STM32F1xx_HAL_Driver/Src/stm32f1xx_hal_pcd.c ****     defined(STM32F103xE) || defined(STM32F103xG) || \
ARM GAS  /tmp/cc956sXB.s 			page 3


  91:Drivers/STM32F1xx_HAL_Driver/Src/stm32f1xx_hal_pcd.c ****     defined(STM32F105xC) || defined(STM32F107xC)
  92:Drivers/STM32F1xx_HAL_Driver/Src/stm32f1xx_hal_pcd.c **** 
  93:Drivers/STM32F1xx_HAL_Driver/Src/stm32f1xx_hal_pcd.c **** /** @defgroup PCD PCD
  94:Drivers/STM32F1xx_HAL_Driver/Src/stm32f1xx_hal_pcd.c ****   * @brief PCD HAL module driver
  95:Drivers/STM32F1xx_HAL_Driver/Src/stm32f1xx_hal_pcd.c ****   * @{
  96:Drivers/STM32F1xx_HAL_Driver/Src/stm32f1xx_hal_pcd.c ****   */
  97:Drivers/STM32F1xx_HAL_Driver/Src/stm32f1xx_hal_pcd.c **** 
  98:Drivers/STM32F1xx_HAL_Driver/Src/stm32f1xx_hal_pcd.c **** /* Private types -------------------------------------------------------------*/
  99:Drivers/STM32F1xx_HAL_Driver/Src/stm32f1xx_hal_pcd.c **** /* Private variables ---------------------------------------------------------*/
 100:Drivers/STM32F1xx_HAL_Driver/Src/stm32f1xx_hal_pcd.c **** /* Private constants ---------------------------------------------------------*/
 101:Drivers/STM32F1xx_HAL_Driver/Src/stm32f1xx_hal_pcd.c **** /* Private macros ------------------------------------------------------------*/
 102:Drivers/STM32F1xx_HAL_Driver/Src/stm32f1xx_hal_pcd.c **** /** @defgroup PCD_Private_Macros PCD Private Macros
 103:Drivers/STM32F1xx_HAL_Driver/Src/stm32f1xx_hal_pcd.c ****   * @{
 104:Drivers/STM32F1xx_HAL_Driver/Src/stm32f1xx_hal_pcd.c ****   */ 
 105:Drivers/STM32F1xx_HAL_Driver/Src/stm32f1xx_hal_pcd.c **** #define PCD_MIN(a, b)  (((a) < (b)) ? (a) : (b))
 106:Drivers/STM32F1xx_HAL_Driver/Src/stm32f1xx_hal_pcd.c **** #define PCD_MAX(a, b)  (((a) > (b)) ? (a) : (b))
 107:Drivers/STM32F1xx_HAL_Driver/Src/stm32f1xx_hal_pcd.c **** /**
 108:Drivers/STM32F1xx_HAL_Driver/Src/stm32f1xx_hal_pcd.c ****   * @}
 109:Drivers/STM32F1xx_HAL_Driver/Src/stm32f1xx_hal_pcd.c ****   */
 110:Drivers/STM32F1xx_HAL_Driver/Src/stm32f1xx_hal_pcd.c **** 
 111:Drivers/STM32F1xx_HAL_Driver/Src/stm32f1xx_hal_pcd.c **** /* Private functions ---------------------------------------------------------*/
 112:Drivers/STM32F1xx_HAL_Driver/Src/stm32f1xx_hal_pcd.c **** /** @defgroup PCD_Private_Functions PCD Private Functions
 113:Drivers/STM32F1xx_HAL_Driver/Src/stm32f1xx_hal_pcd.c ****   * @{
 114:Drivers/STM32F1xx_HAL_Driver/Src/stm32f1xx_hal_pcd.c ****   */
 115:Drivers/STM32F1xx_HAL_Driver/Src/stm32f1xx_hal_pcd.c **** #if defined (USB_OTG_FS)
 116:Drivers/STM32F1xx_HAL_Driver/Src/stm32f1xx_hal_pcd.c **** static HAL_StatusTypeDef PCD_WriteEmptyTxFifo(PCD_HandleTypeDef *hpcd, uint32_t epnum);
 117:Drivers/STM32F1xx_HAL_Driver/Src/stm32f1xx_hal_pcd.c **** #endif /* USB_OTG_FS */
 118:Drivers/STM32F1xx_HAL_Driver/Src/stm32f1xx_hal_pcd.c **** 
 119:Drivers/STM32F1xx_HAL_Driver/Src/stm32f1xx_hal_pcd.c **** #if defined (USB)
 120:Drivers/STM32F1xx_HAL_Driver/Src/stm32f1xx_hal_pcd.c **** static HAL_StatusTypeDef PCD_EP_ISR_Handler(PCD_HandleTypeDef *hpcd);
 121:Drivers/STM32F1xx_HAL_Driver/Src/stm32f1xx_hal_pcd.c **** #endif /* USB */
 122:Drivers/STM32F1xx_HAL_Driver/Src/stm32f1xx_hal_pcd.c **** /**
 123:Drivers/STM32F1xx_HAL_Driver/Src/stm32f1xx_hal_pcd.c ****   * @}
 124:Drivers/STM32F1xx_HAL_Driver/Src/stm32f1xx_hal_pcd.c ****   */
 125:Drivers/STM32F1xx_HAL_Driver/Src/stm32f1xx_hal_pcd.c **** 
 126:Drivers/STM32F1xx_HAL_Driver/Src/stm32f1xx_hal_pcd.c **** /* Exported functions --------------------------------------------------------*/
 127:Drivers/STM32F1xx_HAL_Driver/Src/stm32f1xx_hal_pcd.c **** /** @defgroup PCD_Exported_Functions PCD Exported Functions
 128:Drivers/STM32F1xx_HAL_Driver/Src/stm32f1xx_hal_pcd.c ****   * @{
 129:Drivers/STM32F1xx_HAL_Driver/Src/stm32f1xx_hal_pcd.c ****   */
 130:Drivers/STM32F1xx_HAL_Driver/Src/stm32f1xx_hal_pcd.c **** 
 131:Drivers/STM32F1xx_HAL_Driver/Src/stm32f1xx_hal_pcd.c **** /** @defgroup PCD_Exported_Functions_Group1 Initialization and de-initialization functions 
 132:Drivers/STM32F1xx_HAL_Driver/Src/stm32f1xx_hal_pcd.c ****  *  @brief    Initialization and Configuration functions 
 133:Drivers/STM32F1xx_HAL_Driver/Src/stm32f1xx_hal_pcd.c ****  *
 134:Drivers/STM32F1xx_HAL_Driver/Src/stm32f1xx_hal_pcd.c **** @verbatim
 135:Drivers/STM32F1xx_HAL_Driver/Src/stm32f1xx_hal_pcd.c ****  ===============================================================================
 136:Drivers/STM32F1xx_HAL_Driver/Src/stm32f1xx_hal_pcd.c ****             ##### Initialization and de-initialization functions #####
 137:Drivers/STM32F1xx_HAL_Driver/Src/stm32f1xx_hal_pcd.c ****  ===============================================================================
 138:Drivers/STM32F1xx_HAL_Driver/Src/stm32f1xx_hal_pcd.c ****     [..]  This section provides functions allowing to:
 139:Drivers/STM32F1xx_HAL_Driver/Src/stm32f1xx_hal_pcd.c ****  
 140:Drivers/STM32F1xx_HAL_Driver/Src/stm32f1xx_hal_pcd.c **** @endverbatim
 141:Drivers/STM32F1xx_HAL_Driver/Src/stm32f1xx_hal_pcd.c ****   * @{
 142:Drivers/STM32F1xx_HAL_Driver/Src/stm32f1xx_hal_pcd.c ****   */
 143:Drivers/STM32F1xx_HAL_Driver/Src/stm32f1xx_hal_pcd.c **** 
 144:Drivers/STM32F1xx_HAL_Driver/Src/stm32f1xx_hal_pcd.c **** /**
 145:Drivers/STM32F1xx_HAL_Driver/Src/stm32f1xx_hal_pcd.c ****   * @brief  Initializes the PCD according to the specified
 146:Drivers/STM32F1xx_HAL_Driver/Src/stm32f1xx_hal_pcd.c ****   *         parameters in the PCD_InitTypeDef and create the associated handle.
 147:Drivers/STM32F1xx_HAL_Driver/Src/stm32f1xx_hal_pcd.c ****   * @param  hpcd: PCD handle
ARM GAS  /tmp/cc956sXB.s 			page 4


 148:Drivers/STM32F1xx_HAL_Driver/Src/stm32f1xx_hal_pcd.c ****   * @retval HAL status
 149:Drivers/STM32F1xx_HAL_Driver/Src/stm32f1xx_hal_pcd.c ****   */
 150:Drivers/STM32F1xx_HAL_Driver/Src/stm32f1xx_hal_pcd.c **** HAL_StatusTypeDef HAL_PCD_Init(PCD_HandleTypeDef *hpcd)
 151:Drivers/STM32F1xx_HAL_Driver/Src/stm32f1xx_hal_pcd.c **** {
 152:Drivers/STM32F1xx_HAL_Driver/Src/stm32f1xx_hal_pcd.c ****   uint32_t index = 0U;
 153:Drivers/STM32F1xx_HAL_Driver/Src/stm32f1xx_hal_pcd.c ****   
 154:Drivers/STM32F1xx_HAL_Driver/Src/stm32f1xx_hal_pcd.c ****   /* Check the PCD handle allocation */
 155:Drivers/STM32F1xx_HAL_Driver/Src/stm32f1xx_hal_pcd.c ****   if(hpcd == NULL)
 156:Drivers/STM32F1xx_HAL_Driver/Src/stm32f1xx_hal_pcd.c ****   {
 157:Drivers/STM32F1xx_HAL_Driver/Src/stm32f1xx_hal_pcd.c ****     return HAL_ERROR;
 158:Drivers/STM32F1xx_HAL_Driver/Src/stm32f1xx_hal_pcd.c ****   }
 159:Drivers/STM32F1xx_HAL_Driver/Src/stm32f1xx_hal_pcd.c ****   
 160:Drivers/STM32F1xx_HAL_Driver/Src/stm32f1xx_hal_pcd.c ****   /* Check the parameters */
 161:Drivers/STM32F1xx_HAL_Driver/Src/stm32f1xx_hal_pcd.c ****   assert_param(IS_PCD_ALL_INSTANCE(hpcd->Instance));
 162:Drivers/STM32F1xx_HAL_Driver/Src/stm32f1xx_hal_pcd.c **** 
 163:Drivers/STM32F1xx_HAL_Driver/Src/stm32f1xx_hal_pcd.c ****   if(hpcd->State == HAL_PCD_STATE_RESET)
 164:Drivers/STM32F1xx_HAL_Driver/Src/stm32f1xx_hal_pcd.c ****   {  
 165:Drivers/STM32F1xx_HAL_Driver/Src/stm32f1xx_hal_pcd.c ****     /* Allocate lock resource and initialize it */
 166:Drivers/STM32F1xx_HAL_Driver/Src/stm32f1xx_hal_pcd.c ****     hpcd->Lock = HAL_UNLOCKED;
 167:Drivers/STM32F1xx_HAL_Driver/Src/stm32f1xx_hal_pcd.c **** 
 168:Drivers/STM32F1xx_HAL_Driver/Src/stm32f1xx_hal_pcd.c ****     /* Init the low level hardware : GPIO, CLOCK, NVIC... */
 169:Drivers/STM32F1xx_HAL_Driver/Src/stm32f1xx_hal_pcd.c ****     HAL_PCD_MspInit(hpcd);
 170:Drivers/STM32F1xx_HAL_Driver/Src/stm32f1xx_hal_pcd.c ****   }
 171:Drivers/STM32F1xx_HAL_Driver/Src/stm32f1xx_hal_pcd.c ****   
 172:Drivers/STM32F1xx_HAL_Driver/Src/stm32f1xx_hal_pcd.c ****   hpcd->State = HAL_PCD_STATE_BUSY;
 173:Drivers/STM32F1xx_HAL_Driver/Src/stm32f1xx_hal_pcd.c ****   
 174:Drivers/STM32F1xx_HAL_Driver/Src/stm32f1xx_hal_pcd.c ****   /* Disable the Interrupts */
 175:Drivers/STM32F1xx_HAL_Driver/Src/stm32f1xx_hal_pcd.c ****   __HAL_PCD_DISABLE(hpcd);
 176:Drivers/STM32F1xx_HAL_Driver/Src/stm32f1xx_hal_pcd.c **** 
 177:Drivers/STM32F1xx_HAL_Driver/Src/stm32f1xx_hal_pcd.c ****   /*Init the Core (common init.) */
 178:Drivers/STM32F1xx_HAL_Driver/Src/stm32f1xx_hal_pcd.c ****   USB_CoreInit(hpcd->Instance, hpcd->Init);
 179:Drivers/STM32F1xx_HAL_Driver/Src/stm32f1xx_hal_pcd.c ****  
 180:Drivers/STM32F1xx_HAL_Driver/Src/stm32f1xx_hal_pcd.c ****   /* Force Device Mode*/
 181:Drivers/STM32F1xx_HAL_Driver/Src/stm32f1xx_hal_pcd.c ****   USB_SetCurrentMode(hpcd->Instance , USB_DEVICE_MODE);
 182:Drivers/STM32F1xx_HAL_Driver/Src/stm32f1xx_hal_pcd.c ****  
 183:Drivers/STM32F1xx_HAL_Driver/Src/stm32f1xx_hal_pcd.c ****   /* Init endpoints structures */
 184:Drivers/STM32F1xx_HAL_Driver/Src/stm32f1xx_hal_pcd.c ****   for (index = 0U; index < 15U ; index++)
 185:Drivers/STM32F1xx_HAL_Driver/Src/stm32f1xx_hal_pcd.c ****   {
 186:Drivers/STM32F1xx_HAL_Driver/Src/stm32f1xx_hal_pcd.c ****     /* Init ep structure */
 187:Drivers/STM32F1xx_HAL_Driver/Src/stm32f1xx_hal_pcd.c ****     hpcd->IN_ep[index].is_in = 1U;
 188:Drivers/STM32F1xx_HAL_Driver/Src/stm32f1xx_hal_pcd.c ****     hpcd->IN_ep[index].num = index;
 189:Drivers/STM32F1xx_HAL_Driver/Src/stm32f1xx_hal_pcd.c ****     hpcd->IN_ep[index].tx_fifo_num = index;
 190:Drivers/STM32F1xx_HAL_Driver/Src/stm32f1xx_hal_pcd.c ****     /* Control until ep is actvated */
 191:Drivers/STM32F1xx_HAL_Driver/Src/stm32f1xx_hal_pcd.c ****     hpcd->IN_ep[index].type = EP_TYPE_CTRL;
 192:Drivers/STM32F1xx_HAL_Driver/Src/stm32f1xx_hal_pcd.c ****     hpcd->IN_ep[index].maxpacket =  0U;
 193:Drivers/STM32F1xx_HAL_Driver/Src/stm32f1xx_hal_pcd.c ****     hpcd->IN_ep[index].xfer_buff = 0U;
 194:Drivers/STM32F1xx_HAL_Driver/Src/stm32f1xx_hal_pcd.c ****     hpcd->IN_ep[index].xfer_len = 0U;
 195:Drivers/STM32F1xx_HAL_Driver/Src/stm32f1xx_hal_pcd.c ****   }
 196:Drivers/STM32F1xx_HAL_Driver/Src/stm32f1xx_hal_pcd.c ****  
 197:Drivers/STM32F1xx_HAL_Driver/Src/stm32f1xx_hal_pcd.c ****   for (index = 0U; index < 15U ; index++)
 198:Drivers/STM32F1xx_HAL_Driver/Src/stm32f1xx_hal_pcd.c ****   {
 199:Drivers/STM32F1xx_HAL_Driver/Src/stm32f1xx_hal_pcd.c ****     hpcd->OUT_ep[index].is_in = 0U;
 200:Drivers/STM32F1xx_HAL_Driver/Src/stm32f1xx_hal_pcd.c ****     hpcd->OUT_ep[index].num = index;
 201:Drivers/STM32F1xx_HAL_Driver/Src/stm32f1xx_hal_pcd.c ****     hpcd->IN_ep[index].tx_fifo_num = index;
 202:Drivers/STM32F1xx_HAL_Driver/Src/stm32f1xx_hal_pcd.c ****     /* Control until ep is activated */
 203:Drivers/STM32F1xx_HAL_Driver/Src/stm32f1xx_hal_pcd.c ****     hpcd->OUT_ep[index].type = EP_TYPE_CTRL;
 204:Drivers/STM32F1xx_HAL_Driver/Src/stm32f1xx_hal_pcd.c ****     hpcd->OUT_ep[index].maxpacket = 0U;
ARM GAS  /tmp/cc956sXB.s 			page 5


 205:Drivers/STM32F1xx_HAL_Driver/Src/stm32f1xx_hal_pcd.c ****     hpcd->OUT_ep[index].xfer_buff = 0U;
 206:Drivers/STM32F1xx_HAL_Driver/Src/stm32f1xx_hal_pcd.c ****     hpcd->OUT_ep[index].xfer_len = 0U;
 207:Drivers/STM32F1xx_HAL_Driver/Src/stm32f1xx_hal_pcd.c ****   }
 208:Drivers/STM32F1xx_HAL_Driver/Src/stm32f1xx_hal_pcd.c ****   
 209:Drivers/STM32F1xx_HAL_Driver/Src/stm32f1xx_hal_pcd.c ****   /* Init Device */
 210:Drivers/STM32F1xx_HAL_Driver/Src/stm32f1xx_hal_pcd.c ****   USB_DevInit(hpcd->Instance, hpcd->Init);
 211:Drivers/STM32F1xx_HAL_Driver/Src/stm32f1xx_hal_pcd.c ****   
 212:Drivers/STM32F1xx_HAL_Driver/Src/stm32f1xx_hal_pcd.c ****   hpcd->USB_Address = 0U;
 213:Drivers/STM32F1xx_HAL_Driver/Src/stm32f1xx_hal_pcd.c ****   hpcd->State= HAL_PCD_STATE_READY;
 214:Drivers/STM32F1xx_HAL_Driver/Src/stm32f1xx_hal_pcd.c ****   
 215:Drivers/STM32F1xx_HAL_Driver/Src/stm32f1xx_hal_pcd.c ****   USB_DevDisconnect (hpcd->Instance);  
 216:Drivers/STM32F1xx_HAL_Driver/Src/stm32f1xx_hal_pcd.c ****   return HAL_OK;
 217:Drivers/STM32F1xx_HAL_Driver/Src/stm32f1xx_hal_pcd.c **** }
 218:Drivers/STM32F1xx_HAL_Driver/Src/stm32f1xx_hal_pcd.c **** 
 219:Drivers/STM32F1xx_HAL_Driver/Src/stm32f1xx_hal_pcd.c **** /**
 220:Drivers/STM32F1xx_HAL_Driver/Src/stm32f1xx_hal_pcd.c ****   * @brief  DeInitializes the PCD peripheral 
 221:Drivers/STM32F1xx_HAL_Driver/Src/stm32f1xx_hal_pcd.c ****   * @param  hpcd: PCD handle
 222:Drivers/STM32F1xx_HAL_Driver/Src/stm32f1xx_hal_pcd.c ****   * @retval HAL status
 223:Drivers/STM32F1xx_HAL_Driver/Src/stm32f1xx_hal_pcd.c ****   */
 224:Drivers/STM32F1xx_HAL_Driver/Src/stm32f1xx_hal_pcd.c **** HAL_StatusTypeDef HAL_PCD_DeInit(PCD_HandleTypeDef *hpcd)
 225:Drivers/STM32F1xx_HAL_Driver/Src/stm32f1xx_hal_pcd.c **** {
 226:Drivers/STM32F1xx_HAL_Driver/Src/stm32f1xx_hal_pcd.c ****   /* Check the PCD handle allocation */
 227:Drivers/STM32F1xx_HAL_Driver/Src/stm32f1xx_hal_pcd.c ****   if(hpcd == NULL)
 228:Drivers/STM32F1xx_HAL_Driver/Src/stm32f1xx_hal_pcd.c ****   {
 229:Drivers/STM32F1xx_HAL_Driver/Src/stm32f1xx_hal_pcd.c ****     return HAL_ERROR;
 230:Drivers/STM32F1xx_HAL_Driver/Src/stm32f1xx_hal_pcd.c ****   }
 231:Drivers/STM32F1xx_HAL_Driver/Src/stm32f1xx_hal_pcd.c **** 
 232:Drivers/STM32F1xx_HAL_Driver/Src/stm32f1xx_hal_pcd.c ****   hpcd->State = HAL_PCD_STATE_BUSY;
 233:Drivers/STM32F1xx_HAL_Driver/Src/stm32f1xx_hal_pcd.c ****   
 234:Drivers/STM32F1xx_HAL_Driver/Src/stm32f1xx_hal_pcd.c ****   /* Stop Device */
 235:Drivers/STM32F1xx_HAL_Driver/Src/stm32f1xx_hal_pcd.c ****   HAL_PCD_Stop(hpcd);
 236:Drivers/STM32F1xx_HAL_Driver/Src/stm32f1xx_hal_pcd.c ****   
 237:Drivers/STM32F1xx_HAL_Driver/Src/stm32f1xx_hal_pcd.c ****   /* DeInit the low level hardware */
 238:Drivers/STM32F1xx_HAL_Driver/Src/stm32f1xx_hal_pcd.c ****   HAL_PCD_MspDeInit(hpcd);
 239:Drivers/STM32F1xx_HAL_Driver/Src/stm32f1xx_hal_pcd.c ****   
 240:Drivers/STM32F1xx_HAL_Driver/Src/stm32f1xx_hal_pcd.c ****   hpcd->State = HAL_PCD_STATE_RESET; 
 241:Drivers/STM32F1xx_HAL_Driver/Src/stm32f1xx_hal_pcd.c ****   
 242:Drivers/STM32F1xx_HAL_Driver/Src/stm32f1xx_hal_pcd.c ****   return HAL_OK;
 243:Drivers/STM32F1xx_HAL_Driver/Src/stm32f1xx_hal_pcd.c **** }
 244:Drivers/STM32F1xx_HAL_Driver/Src/stm32f1xx_hal_pcd.c **** 
 245:Drivers/STM32F1xx_HAL_Driver/Src/stm32f1xx_hal_pcd.c **** /**
 246:Drivers/STM32F1xx_HAL_Driver/Src/stm32f1xx_hal_pcd.c ****   * @brief  Initializes the PCD MSP.
 247:Drivers/STM32F1xx_HAL_Driver/Src/stm32f1xx_hal_pcd.c ****   * @param  hpcd: PCD handle
 248:Drivers/STM32F1xx_HAL_Driver/Src/stm32f1xx_hal_pcd.c ****   * @retval None
 249:Drivers/STM32F1xx_HAL_Driver/Src/stm32f1xx_hal_pcd.c ****   */
 250:Drivers/STM32F1xx_HAL_Driver/Src/stm32f1xx_hal_pcd.c **** __weak void HAL_PCD_MspInit(PCD_HandleTypeDef *hpcd)
 251:Drivers/STM32F1xx_HAL_Driver/Src/stm32f1xx_hal_pcd.c **** {
  26              		.loc 1 251 0
  27              		.cfi_startproc
  28              		@ args = 0, pretend = 0, frame = 0
  29              		@ frame_needed = 0, uses_anonymous_args = 0
  30              		@ link register save eliminated.
  31              	.LVL0:
  32 0000 7047     		bx	lr
  33              		.cfi_endproc
  34              	.LFE66:
  36              		.section	.text.HAL_PCD_Init,"ax",%progbits
ARM GAS  /tmp/cc956sXB.s 			page 6


  37              		.align	1
  38              		.global	HAL_PCD_Init
  39              		.syntax unified
  40              		.thumb
  41              		.thumb_func
  42              		.fpu softvfp
  44              	HAL_PCD_Init:
  45              	.LFB64:
 151:Drivers/STM32F1xx_HAL_Driver/Src/stm32f1xx_hal_pcd.c ****   uint32_t index = 0U;
  46              		.loc 1 151 0
  47              		.cfi_startproc
  48              		@ args = 0, pretend = 0, frame = 0
  49              		@ frame_needed = 0, uses_anonymous_args = 0
  50              	.LVL1:
 155:Drivers/STM32F1xx_HAL_Driver/Src/stm32f1xx_hal_pcd.c ****   {
  51              		.loc 1 155 0
  52 0000 0028     		cmp	r0, #0
  53 0002 66D0     		beq	.L9
 151:Drivers/STM32F1xx_HAL_Driver/Src/stm32f1xx_hal_pcd.c ****   uint32_t index = 0U;
  54              		.loc 1 151 0
  55 0004 F0B5     		push	{r4, r5, r6, r7, lr}
  56              	.LCFI0:
  57              		.cfi_def_cfa_offset 20
  58              		.cfi_offset 4, -20
  59              		.cfi_offset 5, -16
  60              		.cfi_offset 6, -12
  61              		.cfi_offset 7, -8
  62              		.cfi_offset 14, -4
  63 0006 87B0     		sub	sp, sp, #28
  64              	.LCFI1:
  65              		.cfi_def_cfa_offset 48
  66 0008 0446     		mov	r4, r0
 163:Drivers/STM32F1xx_HAL_Driver/Src/stm32f1xx_hal_pcd.c ****   {  
  67              		.loc 1 163 0
  68 000a 90F82934 		ldrb	r3, [r0, #1065]	@ zero_extendqisi2
  69 000e C3B1     		cbz	r3, .L14
  70              	.LVL2:
  71              	.L4:
 172:Drivers/STM32F1xx_HAL_Driver/Src/stm32f1xx_hal_pcd.c ****   
  72              		.loc 1 172 0
  73 0010 0323     		movs	r3, #3
  74 0012 84F82934 		strb	r3, [r4, #1065]
 175:Drivers/STM32F1xx_HAL_Driver/Src/stm32f1xx_hal_pcd.c **** 
  75              		.loc 1 175 0
  76 0016 2068     		ldr	r0, [r4]
  77 0018 FFF7FEFF 		bl	USB_DisableGlobalInt
  78              	.LVL3:
 178:Drivers/STM32F1xx_HAL_Driver/Src/stm32f1xx_hal_pcd.c ****  
  79              		.loc 1 178 0
  80 001c 2546     		mov	r5, r4
  81 001e 55F8107B 		ldr	r7, [r5], #16
  82 0022 6E46     		mov	r6, sp
  83 0024 0FCD     		ldmia	r5!, {r0, r1, r2, r3}
  84 0026 0FC6     		stmia	r6!, {r0, r1, r2, r3}
  85 0028 2B68     		ldr	r3, [r5]
  86 002a 3360     		str	r3, [r6]
  87 002c 231D     		adds	r3, r4, #4
ARM GAS  /tmp/cc956sXB.s 			page 7


  88 002e 0ECB     		ldm	r3, {r1, r2, r3}
  89 0030 3846     		mov	r0, r7
  90 0032 FFF7FEFF 		bl	USB_CoreInit
  91              	.LVL4:
 181:Drivers/STM32F1xx_HAL_Driver/Src/stm32f1xx_hal_pcd.c ****  
  92              		.loc 1 181 0
  93 0036 0021     		movs	r1, #0
  94 0038 2068     		ldr	r0, [r4]
  95 003a FFF7FEFF 		bl	USB_SetCurrentMode
  96              	.LVL5:
 184:Drivers/STM32F1xx_HAL_Driver/Src/stm32f1xx_hal_pcd.c ****   {
  97              		.loc 1 184 0
  98 003e 0023     		movs	r3, #0
  99 0040 15E0     		b	.L5
 100              	.LVL6:
 101              	.L14:
 166:Drivers/STM32F1xx_HAL_Driver/Src/stm32f1xx_hal_pcd.c **** 
 102              		.loc 1 166 0
 103 0042 80F82834 		strb	r3, [r0, #1064]
 169:Drivers/STM32F1xx_HAL_Driver/Src/stm32f1xx_hal_pcd.c ****   }
 104              		.loc 1 169 0
 105 0046 FFF7FEFF 		bl	HAL_PCD_MspInit
 106              	.LVL7:
 107 004a E1E7     		b	.L4
 108              	.LVL8:
 109              	.L6:
 187:Drivers/STM32F1xx_HAL_Driver/Src/stm32f1xx_hal_pcd.c ****     hpcd->IN_ep[index].num = index;
 110              		.loc 1 187 0 discriminator 3
 111 004c 04EB4312 		add	r2, r4, r3, lsl #5
 112 0050 0121     		movs	r1, #1
 113 0052 82F82910 		strb	r1, [r2, #41]
 188:Drivers/STM32F1xx_HAL_Driver/Src/stm32f1xx_hal_pcd.c ****     hpcd->IN_ep[index].tx_fifo_num = index;
 114              		.loc 1 188 0 discriminator 3
 115 0056 82F82830 		strb	r3, [r2, #40]
 189:Drivers/STM32F1xx_HAL_Driver/Src/stm32f1xx_hal_pcd.c ****     /* Control until ep is actvated */
 116              		.loc 1 189 0 discriminator 3
 117 005a 9386     		strh	r3, [r2, #52]	@ movhi
 191:Drivers/STM32F1xx_HAL_Driver/Src/stm32f1xx_hal_pcd.c ****     hpcd->IN_ep[index].maxpacket =  0U;
 118              		.loc 1 191 0 discriminator 3
 119 005c 0021     		movs	r1, #0
 120 005e 82F82B10 		strb	r1, [r2, #43]
 192:Drivers/STM32F1xx_HAL_Driver/Src/stm32f1xx_hal_pcd.c ****     hpcd->IN_ep[index].xfer_buff = 0U;
 121              		.loc 1 192 0 discriminator 3
 122 0062 9163     		str	r1, [r2, #56]
 193:Drivers/STM32F1xx_HAL_Driver/Src/stm32f1xx_hal_pcd.c ****     hpcd->IN_ep[index].xfer_len = 0U;
 123              		.loc 1 193 0 discriminator 3
 124 0064 D163     		str	r1, [r2, #60]
 194:Drivers/STM32F1xx_HAL_Driver/Src/stm32f1xx_hal_pcd.c ****   }
 125              		.loc 1 194 0 discriminator 3
 126 0066 9A1C     		adds	r2, r3, #2
 127 0068 5201     		lsls	r2, r2, #5
 128 006a A150     		str	r1, [r4, r2]
 184:Drivers/STM32F1xx_HAL_Driver/Src/stm32f1xx_hal_pcd.c ****   {
 129              		.loc 1 184 0 discriminator 3
 130 006c 0133     		adds	r3, r3, #1
 131              	.LVL9:
 132              	.L5:
ARM GAS  /tmp/cc956sXB.s 			page 8


 184:Drivers/STM32F1xx_HAL_Driver/Src/stm32f1xx_hal_pcd.c ****   {
 133              		.loc 1 184 0 is_stmt 0 discriminator 1
 134 006e 0E2B     		cmp	r3, #14
 135 0070 ECD9     		bls	.L6
 136 0072 0023     		movs	r3, #0
 137              	.LVL10:
 138 0074 12E0     		b	.L7
 139              	.LVL11:
 140              	.L8:
 199:Drivers/STM32F1xx_HAL_Driver/Src/stm32f1xx_hal_pcd.c ****     hpcd->OUT_ep[index].num = index;
 141              		.loc 1 199 0 is_stmt 1 discriminator 3
 142 0076 04EB4312 		add	r2, r4, r3, lsl #5
 143 007a 0021     		movs	r1, #0
 144 007c 82F82912 		strb	r1, [r2, #553]
 200:Drivers/STM32F1xx_HAL_Driver/Src/stm32f1xx_hal_pcd.c ****     hpcd->IN_ep[index].tx_fifo_num = index;
 145              		.loc 1 200 0 discriminator 3
 146 0080 82F82832 		strb	r3, [r2, #552]
 201:Drivers/STM32F1xx_HAL_Driver/Src/stm32f1xx_hal_pcd.c ****     /* Control until ep is activated */
 147              		.loc 1 201 0 discriminator 3
 148 0084 9386     		strh	r3, [r2, #52]	@ movhi
 203:Drivers/STM32F1xx_HAL_Driver/Src/stm32f1xx_hal_pcd.c ****     hpcd->OUT_ep[index].maxpacket = 0U;
 149              		.loc 1 203 0 discriminator 3
 150 0086 82F82B12 		strb	r1, [r2, #555]
 204:Drivers/STM32F1xx_HAL_Driver/Src/stm32f1xx_hal_pcd.c ****     hpcd->OUT_ep[index].xfer_buff = 0U;
 151              		.loc 1 204 0 discriminator 3
 152 008a C2F83812 		str	r1, [r2, #568]
 205:Drivers/STM32F1xx_HAL_Driver/Src/stm32f1xx_hal_pcd.c ****     hpcd->OUT_ep[index].xfer_len = 0U;
 153              		.loc 1 205 0 discriminator 3
 154 008e C2F83C12 		str	r1, [r2, #572]
 206:Drivers/STM32F1xx_HAL_Driver/Src/stm32f1xx_hal_pcd.c ****   }
 155              		.loc 1 206 0 discriminator 3
 156 0092 03F11202 		add	r2, r3, #18
 157 0096 5201     		lsls	r2, r2, #5
 158 0098 A150     		str	r1, [r4, r2]
 197:Drivers/STM32F1xx_HAL_Driver/Src/stm32f1xx_hal_pcd.c ****   {
 159              		.loc 1 197 0 discriminator 3
 160 009a 0133     		adds	r3, r3, #1
 161              	.LVL12:
 162              	.L7:
 197:Drivers/STM32F1xx_HAL_Driver/Src/stm32f1xx_hal_pcd.c ****   {
 163              		.loc 1 197 0 is_stmt 0 discriminator 1
 164 009c 0E2B     		cmp	r3, #14
 165 009e EAD9     		bls	.L8
 210:Drivers/STM32F1xx_HAL_Driver/Src/stm32f1xx_hal_pcd.c ****   
 166              		.loc 1 210 0 is_stmt 1
 167 00a0 2546     		mov	r5, r4
 168 00a2 55F8107B 		ldr	r7, [r5], #16
 169 00a6 6E46     		mov	r6, sp
 170 00a8 0FCD     		ldmia	r5!, {r0, r1, r2, r3}
 171              	.LVL13:
 172 00aa 0FC6     		stmia	r6!, {r0, r1, r2, r3}
 173 00ac 2B68     		ldr	r3, [r5]
 174 00ae 3360     		str	r3, [r6]
 175 00b0 231D     		adds	r3, r4, #4
 176 00b2 0ECB     		ldm	r3, {r1, r2, r3}
 177 00b4 3846     		mov	r0, r7
 178 00b6 FFF7FEFF 		bl	USB_DevInit
ARM GAS  /tmp/cc956sXB.s 			page 9


 179              	.LVL14:
 212:Drivers/STM32F1xx_HAL_Driver/Src/stm32f1xx_hal_pcd.c ****   hpcd->State= HAL_PCD_STATE_READY;
 180              		.loc 1 212 0
 181 00ba 0025     		movs	r5, #0
 182 00bc 84F82450 		strb	r5, [r4, #36]
 213:Drivers/STM32F1xx_HAL_Driver/Src/stm32f1xx_hal_pcd.c ****   
 183              		.loc 1 213 0
 184 00c0 0123     		movs	r3, #1
 185 00c2 84F82934 		strb	r3, [r4, #1065]
 215:Drivers/STM32F1xx_HAL_Driver/Src/stm32f1xx_hal_pcd.c ****   return HAL_OK;
 186              		.loc 1 215 0
 187 00c6 2068     		ldr	r0, [r4]
 188 00c8 FFF7FEFF 		bl	USB_DevDisconnect
 189              	.LVL15:
 216:Drivers/STM32F1xx_HAL_Driver/Src/stm32f1xx_hal_pcd.c **** }
 190              		.loc 1 216 0
 191 00cc 2846     		mov	r0, r5
 217:Drivers/STM32F1xx_HAL_Driver/Src/stm32f1xx_hal_pcd.c **** 
 192              		.loc 1 217 0
 193 00ce 07B0     		add	sp, sp, #28
 194              	.LCFI2:
 195              		.cfi_def_cfa_offset 20
 196              		@ sp needed
 197 00d0 F0BD     		pop	{r4, r5, r6, r7, pc}
 198              	.LVL16:
 199              	.L9:
 200              	.LCFI3:
 201              		.cfi_def_cfa_offset 0
 202              		.cfi_restore 4
 203              		.cfi_restore 5
 204              		.cfi_restore 6
 205              		.cfi_restore 7
 206              		.cfi_restore 14
 157:Drivers/STM32F1xx_HAL_Driver/Src/stm32f1xx_hal_pcd.c ****   }
 207              		.loc 1 157 0
 208 00d2 0120     		movs	r0, #1
 209              	.LVL17:
 210 00d4 7047     		bx	lr
 211              		.cfi_endproc
 212              	.LFE64:
 214              		.section	.text.HAL_PCD_MspDeInit,"ax",%progbits
 215              		.align	1
 216              		.weak	HAL_PCD_MspDeInit
 217              		.syntax unified
 218              		.thumb
 219              		.thumb_func
 220              		.fpu softvfp
 222              	HAL_PCD_MspDeInit:
 223              	.LFB67:
 252:Drivers/STM32F1xx_HAL_Driver/Src/stm32f1xx_hal_pcd.c ****   /* Prevent unused argument(s) compilation warning */
 253:Drivers/STM32F1xx_HAL_Driver/Src/stm32f1xx_hal_pcd.c ****   UNUSED(hpcd);
 254:Drivers/STM32F1xx_HAL_Driver/Src/stm32f1xx_hal_pcd.c ****   /* NOTE : This function should not be modified, when the callback is needed,
 255:Drivers/STM32F1xx_HAL_Driver/Src/stm32f1xx_hal_pcd.c ****             the HAL_PCD_MspInit could be implemented in the user file
 256:Drivers/STM32F1xx_HAL_Driver/Src/stm32f1xx_hal_pcd.c ****    */
 257:Drivers/STM32F1xx_HAL_Driver/Src/stm32f1xx_hal_pcd.c **** }
 258:Drivers/STM32F1xx_HAL_Driver/Src/stm32f1xx_hal_pcd.c **** 
 259:Drivers/STM32F1xx_HAL_Driver/Src/stm32f1xx_hal_pcd.c **** /**
ARM GAS  /tmp/cc956sXB.s 			page 10


 260:Drivers/STM32F1xx_HAL_Driver/Src/stm32f1xx_hal_pcd.c ****   * @brief  DeInitializes PCD MSP.
 261:Drivers/STM32F1xx_HAL_Driver/Src/stm32f1xx_hal_pcd.c ****   * @param  hpcd: PCD handle
 262:Drivers/STM32F1xx_HAL_Driver/Src/stm32f1xx_hal_pcd.c ****   * @retval None
 263:Drivers/STM32F1xx_HAL_Driver/Src/stm32f1xx_hal_pcd.c ****   */
 264:Drivers/STM32F1xx_HAL_Driver/Src/stm32f1xx_hal_pcd.c **** __weak void HAL_PCD_MspDeInit(PCD_HandleTypeDef *hpcd)
 265:Drivers/STM32F1xx_HAL_Driver/Src/stm32f1xx_hal_pcd.c **** {
 224              		.loc 1 265 0
 225              		.cfi_startproc
 226              		@ args = 0, pretend = 0, frame = 0
 227              		@ frame_needed = 0, uses_anonymous_args = 0
 228              		@ link register save eliminated.
 229              	.LVL18:
 230 0000 7047     		bx	lr
 231              		.cfi_endproc
 232              	.LFE67:
 234              		.section	.text.HAL_PCD_Start,"ax",%progbits
 235              		.align	1
 236              		.global	HAL_PCD_Start
 237              		.syntax unified
 238              		.thumb
 239              		.thumb_func
 240              		.fpu softvfp
 242              	HAL_PCD_Start:
 243              	.LFB68:
 266:Drivers/STM32F1xx_HAL_Driver/Src/stm32f1xx_hal_pcd.c ****   /* Prevent unused argument(s) compilation warning */
 267:Drivers/STM32F1xx_HAL_Driver/Src/stm32f1xx_hal_pcd.c ****   UNUSED(hpcd);
 268:Drivers/STM32F1xx_HAL_Driver/Src/stm32f1xx_hal_pcd.c ****   /* NOTE : This function should not be modified, when the callback is needed,
 269:Drivers/STM32F1xx_HAL_Driver/Src/stm32f1xx_hal_pcd.c ****             the HAL_PCD_MspDeInit could be implemented in the user file
 270:Drivers/STM32F1xx_HAL_Driver/Src/stm32f1xx_hal_pcd.c ****    */
 271:Drivers/STM32F1xx_HAL_Driver/Src/stm32f1xx_hal_pcd.c **** }
 272:Drivers/STM32F1xx_HAL_Driver/Src/stm32f1xx_hal_pcd.c **** 
 273:Drivers/STM32F1xx_HAL_Driver/Src/stm32f1xx_hal_pcd.c **** /**
 274:Drivers/STM32F1xx_HAL_Driver/Src/stm32f1xx_hal_pcd.c ****   * @}
 275:Drivers/STM32F1xx_HAL_Driver/Src/stm32f1xx_hal_pcd.c ****   */
 276:Drivers/STM32F1xx_HAL_Driver/Src/stm32f1xx_hal_pcd.c **** 
 277:Drivers/STM32F1xx_HAL_Driver/Src/stm32f1xx_hal_pcd.c **** /** @defgroup PCD_Exported_Functions_Group2 IO operation functions 
 278:Drivers/STM32F1xx_HAL_Driver/Src/stm32f1xx_hal_pcd.c ****  *  @brief   Data transfers functions 
 279:Drivers/STM32F1xx_HAL_Driver/Src/stm32f1xx_hal_pcd.c ****  *
 280:Drivers/STM32F1xx_HAL_Driver/Src/stm32f1xx_hal_pcd.c **** @verbatim
 281:Drivers/STM32F1xx_HAL_Driver/Src/stm32f1xx_hal_pcd.c ****  ===============================================================================
 282:Drivers/STM32F1xx_HAL_Driver/Src/stm32f1xx_hal_pcd.c ****                       ##### IO operation functions #####
 283:Drivers/STM32F1xx_HAL_Driver/Src/stm32f1xx_hal_pcd.c ****  ===============================================================================
 284:Drivers/STM32F1xx_HAL_Driver/Src/stm32f1xx_hal_pcd.c ****     [..]
 285:Drivers/STM32F1xx_HAL_Driver/Src/stm32f1xx_hal_pcd.c ****     This subsection provides a set of functions allowing to manage the PCD data 
 286:Drivers/STM32F1xx_HAL_Driver/Src/stm32f1xx_hal_pcd.c ****     transfers.
 287:Drivers/STM32F1xx_HAL_Driver/Src/stm32f1xx_hal_pcd.c **** 
 288:Drivers/STM32F1xx_HAL_Driver/Src/stm32f1xx_hal_pcd.c **** @endverbatim
 289:Drivers/STM32F1xx_HAL_Driver/Src/stm32f1xx_hal_pcd.c ****   * @{
 290:Drivers/STM32F1xx_HAL_Driver/Src/stm32f1xx_hal_pcd.c ****   */
 291:Drivers/STM32F1xx_HAL_Driver/Src/stm32f1xx_hal_pcd.c **** 
 292:Drivers/STM32F1xx_HAL_Driver/Src/stm32f1xx_hal_pcd.c **** /**
 293:Drivers/STM32F1xx_HAL_Driver/Src/stm32f1xx_hal_pcd.c ****   * @brief  Start The USB Device.
 294:Drivers/STM32F1xx_HAL_Driver/Src/stm32f1xx_hal_pcd.c ****   * @param  hpcd: PCD handle
 295:Drivers/STM32F1xx_HAL_Driver/Src/stm32f1xx_hal_pcd.c ****   * @retval HAL status
 296:Drivers/STM32F1xx_HAL_Driver/Src/stm32f1xx_hal_pcd.c ****   */
 297:Drivers/STM32F1xx_HAL_Driver/Src/stm32f1xx_hal_pcd.c **** HAL_StatusTypeDef HAL_PCD_Start(PCD_HandleTypeDef *hpcd)
 298:Drivers/STM32F1xx_HAL_Driver/Src/stm32f1xx_hal_pcd.c **** {
ARM GAS  /tmp/cc956sXB.s 			page 11


 244              		.loc 1 298 0
 245              		.cfi_startproc
 246              		@ args = 0, pretend = 0, frame = 0
 247              		@ frame_needed = 0, uses_anonymous_args = 0
 248              	.LVL19:
 299:Drivers/STM32F1xx_HAL_Driver/Src/stm32f1xx_hal_pcd.c ****   __HAL_LOCK(hpcd);
 249              		.loc 1 299 0
 250 0000 90F82834 		ldrb	r3, [r0, #1064]	@ zero_extendqisi2
 251 0004 012B     		cmp	r3, #1
 252 0006 01D1     		bne	.L23
 253 0008 0220     		movs	r0, #2
 254              	.LVL20:
 255 000a 7047     		bx	lr
 256              	.LVL21:
 257              	.L23:
 298:Drivers/STM32F1xx_HAL_Driver/Src/stm32f1xx_hal_pcd.c ****   __HAL_LOCK(hpcd);
 258              		.loc 1 298 0 discriminator 2
 259 000c 10B5     		push	{r4, lr}
 260              	.LCFI4:
 261              		.cfi_def_cfa_offset 8
 262              		.cfi_offset 4, -8
 263              		.cfi_offset 14, -4
 264 000e 0446     		mov	r4, r0
 265              		.loc 1 299 0 discriminator 2
 266 0010 0121     		movs	r1, #1
 267 0012 80F82814 		strb	r1, [r0, #1064]
 300:Drivers/STM32F1xx_HAL_Driver/Src/stm32f1xx_hal_pcd.c ****   HAL_PCDEx_SetConnectionState (hpcd, 1);
 268              		.loc 1 300 0 discriminator 2
 269 0016 FFF7FEFF 		bl	HAL_PCDEx_SetConnectionState
 270              	.LVL22:
 301:Drivers/STM32F1xx_HAL_Driver/Src/stm32f1xx_hal_pcd.c ****   USB_DevConnect (hpcd->Instance);
 271              		.loc 1 301 0 discriminator 2
 272 001a 2068     		ldr	r0, [r4]
 273 001c FFF7FEFF 		bl	USB_DevConnect
 274              	.LVL23:
 302:Drivers/STM32F1xx_HAL_Driver/Src/stm32f1xx_hal_pcd.c ****   __HAL_PCD_ENABLE(hpcd);
 275              		.loc 1 302 0 discriminator 2
 276 0020 2068     		ldr	r0, [r4]
 277 0022 FFF7FEFF 		bl	USB_EnableGlobalInt
 278              	.LVL24:
 303:Drivers/STM32F1xx_HAL_Driver/Src/stm32f1xx_hal_pcd.c ****   __HAL_UNLOCK(hpcd);
 279              		.loc 1 303 0 discriminator 2
 280 0026 0020     		movs	r0, #0
 281 0028 84F82804 		strb	r0, [r4, #1064]
 304:Drivers/STM32F1xx_HAL_Driver/Src/stm32f1xx_hal_pcd.c ****   return HAL_OK;
 282              		.loc 1 304 0 discriminator 2
 283 002c 10BD     		pop	{r4, pc}
 284              		.cfi_endproc
 285              	.LFE68:
 287              		.section	.text.HAL_PCD_Stop,"ax",%progbits
 288              		.align	1
 289              		.global	HAL_PCD_Stop
 290              		.syntax unified
 291              		.thumb
 292              		.thumb_func
 293              		.fpu softvfp
 295              	HAL_PCD_Stop:
ARM GAS  /tmp/cc956sXB.s 			page 12


 296              	.LFB69:
 305:Drivers/STM32F1xx_HAL_Driver/Src/stm32f1xx_hal_pcd.c **** }
 306:Drivers/STM32F1xx_HAL_Driver/Src/stm32f1xx_hal_pcd.c **** 
 307:Drivers/STM32F1xx_HAL_Driver/Src/stm32f1xx_hal_pcd.c **** /**
 308:Drivers/STM32F1xx_HAL_Driver/Src/stm32f1xx_hal_pcd.c ****   * @brief  Stop The USB Device.
 309:Drivers/STM32F1xx_HAL_Driver/Src/stm32f1xx_hal_pcd.c ****   * @param  hpcd: PCD handle
 310:Drivers/STM32F1xx_HAL_Driver/Src/stm32f1xx_hal_pcd.c ****   * @retval HAL status
 311:Drivers/STM32F1xx_HAL_Driver/Src/stm32f1xx_hal_pcd.c ****   */
 312:Drivers/STM32F1xx_HAL_Driver/Src/stm32f1xx_hal_pcd.c **** HAL_StatusTypeDef HAL_PCD_Stop(PCD_HandleTypeDef *hpcd)
 313:Drivers/STM32F1xx_HAL_Driver/Src/stm32f1xx_hal_pcd.c **** {
 297              		.loc 1 313 0
 298              		.cfi_startproc
 299              		@ args = 0, pretend = 0, frame = 0
 300              		@ frame_needed = 0, uses_anonymous_args = 0
 301              	.LVL25:
 314:Drivers/STM32F1xx_HAL_Driver/Src/stm32f1xx_hal_pcd.c ****   __HAL_LOCK(hpcd);
 302              		.loc 1 314 0
 303 0000 90F82834 		ldrb	r3, [r0, #1064]	@ zero_extendqisi2
 304 0004 012B     		cmp	r3, #1
 305 0006 01D1     		bne	.L31
 306 0008 0220     		movs	r0, #2
 307              	.LVL26:
 308 000a 7047     		bx	lr
 309              	.LVL27:
 310              	.L31:
 313:Drivers/STM32F1xx_HAL_Driver/Src/stm32f1xx_hal_pcd.c ****   __HAL_LOCK(hpcd);
 311              		.loc 1 313 0 discriminator 2
 312 000c 10B5     		push	{r4, lr}
 313              	.LCFI5:
 314              		.cfi_def_cfa_offset 8
 315              		.cfi_offset 4, -8
 316              		.cfi_offset 14, -4
 317 000e 0446     		mov	r4, r0
 318              		.loc 1 314 0 discriminator 2
 319 0010 0123     		movs	r3, #1
 320 0012 80F82834 		strb	r3, [r0, #1064]
 315:Drivers/STM32F1xx_HAL_Driver/Src/stm32f1xx_hal_pcd.c ****   __HAL_PCD_DISABLE(hpcd);
 321              		.loc 1 315 0 discriminator 2
 322 0016 0068     		ldr	r0, [r0]
 323              	.LVL28:
 324 0018 FFF7FEFF 		bl	USB_DisableGlobalInt
 325              	.LVL29:
 316:Drivers/STM32F1xx_HAL_Driver/Src/stm32f1xx_hal_pcd.c ****   USB_StopDevice(hpcd->Instance);
 326              		.loc 1 316 0 discriminator 2
 327 001c 2068     		ldr	r0, [r4]
 328 001e FFF7FEFF 		bl	USB_StopDevice
 329              	.LVL30:
 317:Drivers/STM32F1xx_HAL_Driver/Src/stm32f1xx_hal_pcd.c ****   USB_DevDisconnect (hpcd->Instance);
 330              		.loc 1 317 0 discriminator 2
 331 0022 2068     		ldr	r0, [r4]
 332 0024 FFF7FEFF 		bl	USB_DevDisconnect
 333              	.LVL31:
 318:Drivers/STM32F1xx_HAL_Driver/Src/stm32f1xx_hal_pcd.c ****   __HAL_UNLOCK(hpcd);
 334              		.loc 1 318 0 discriminator 2
 335 0028 0020     		movs	r0, #0
 336 002a 84F82804 		strb	r0, [r4, #1064]
 319:Drivers/STM32F1xx_HAL_Driver/Src/stm32f1xx_hal_pcd.c ****   return HAL_OK;
ARM GAS  /tmp/cc956sXB.s 			page 13


 337              		.loc 1 319 0 discriminator 2
 338 002e 10BD     		pop	{r4, pc}
 339              		.cfi_endproc
 340              	.LFE69:
 342              		.section	.text.HAL_PCD_DeInit,"ax",%progbits
 343              		.align	1
 344              		.global	HAL_PCD_DeInit
 345              		.syntax unified
 346              		.thumb
 347              		.thumb_func
 348              		.fpu softvfp
 350              	HAL_PCD_DeInit:
 351              	.LFB65:
 225:Drivers/STM32F1xx_HAL_Driver/Src/stm32f1xx_hal_pcd.c ****   /* Check the PCD handle allocation */
 352              		.loc 1 225 0
 353              		.cfi_startproc
 354              		@ args = 0, pretend = 0, frame = 0
 355              		@ frame_needed = 0, uses_anonymous_args = 0
 356              	.LVL32:
 227:Drivers/STM32F1xx_HAL_Driver/Src/stm32f1xx_hal_pcd.c ****   {
 357              		.loc 1 227 0
 358 0000 68B1     		cbz	r0, .L34
 225:Drivers/STM32F1xx_HAL_Driver/Src/stm32f1xx_hal_pcd.c ****   /* Check the PCD handle allocation */
 359              		.loc 1 225 0
 360 0002 10B5     		push	{r4, lr}
 361              	.LCFI6:
 362              		.cfi_def_cfa_offset 8
 363              		.cfi_offset 4, -8
 364              		.cfi_offset 14, -4
 365 0004 0446     		mov	r4, r0
 232:Drivers/STM32F1xx_HAL_Driver/Src/stm32f1xx_hal_pcd.c ****   
 366              		.loc 1 232 0
 367 0006 0323     		movs	r3, #3
 368 0008 80F82934 		strb	r3, [r0, #1065]
 235:Drivers/STM32F1xx_HAL_Driver/Src/stm32f1xx_hal_pcd.c ****   
 369              		.loc 1 235 0
 370 000c FFF7FEFF 		bl	HAL_PCD_Stop
 371              	.LVL33:
 238:Drivers/STM32F1xx_HAL_Driver/Src/stm32f1xx_hal_pcd.c ****   
 372              		.loc 1 238 0
 373 0010 2046     		mov	r0, r4
 374 0012 FFF7FEFF 		bl	HAL_PCD_MspDeInit
 375              	.LVL34:
 240:Drivers/STM32F1xx_HAL_Driver/Src/stm32f1xx_hal_pcd.c ****   
 376              		.loc 1 240 0
 377 0016 0020     		movs	r0, #0
 378 0018 84F82904 		strb	r0, [r4, #1065]
 242:Drivers/STM32F1xx_HAL_Driver/Src/stm32f1xx_hal_pcd.c **** }
 379              		.loc 1 242 0
 380 001c 10BD     		pop	{r4, pc}
 381              	.LVL35:
 382              	.L34:
 383              	.LCFI7:
 384              		.cfi_def_cfa_offset 0
 385              		.cfi_restore 4
 386              		.cfi_restore 14
 229:Drivers/STM32F1xx_HAL_Driver/Src/stm32f1xx_hal_pcd.c ****   }
ARM GAS  /tmp/cc956sXB.s 			page 14


 387              		.loc 1 229 0
 388 001e 0120     		movs	r0, #1
 389              	.LVL36:
 390 0020 7047     		bx	lr
 391              		.cfi_endproc
 392              	.LFE65:
 394              		.section	.text.HAL_PCD_DataOutStageCallback,"ax",%progbits
 395              		.align	1
 396              		.weak	HAL_PCD_DataOutStageCallback
 397              		.syntax unified
 398              		.thumb
 399              		.thumb_func
 400              		.fpu softvfp
 402              	HAL_PCD_DataOutStageCallback:
 403              	.LFB71:
 320:Drivers/STM32F1xx_HAL_Driver/Src/stm32f1xx_hal_pcd.c **** }
 321:Drivers/STM32F1xx_HAL_Driver/Src/stm32f1xx_hal_pcd.c **** 
 322:Drivers/STM32F1xx_HAL_Driver/Src/stm32f1xx_hal_pcd.c **** #if defined (USB_OTG_FS)
 323:Drivers/STM32F1xx_HAL_Driver/Src/stm32f1xx_hal_pcd.c **** /**
 324:Drivers/STM32F1xx_HAL_Driver/Src/stm32f1xx_hal_pcd.c ****   * @brief  This function handles PCD interrupt request.
 325:Drivers/STM32F1xx_HAL_Driver/Src/stm32f1xx_hal_pcd.c ****   * @param  hpcd: PCD handle
 326:Drivers/STM32F1xx_HAL_Driver/Src/stm32f1xx_hal_pcd.c ****   * @retval HAL status
 327:Drivers/STM32F1xx_HAL_Driver/Src/stm32f1xx_hal_pcd.c ****   */
 328:Drivers/STM32F1xx_HAL_Driver/Src/stm32f1xx_hal_pcd.c **** void HAL_PCD_IRQHandler(PCD_HandleTypeDef *hpcd)
 329:Drivers/STM32F1xx_HAL_Driver/Src/stm32f1xx_hal_pcd.c **** {
 330:Drivers/STM32F1xx_HAL_Driver/Src/stm32f1xx_hal_pcd.c ****   USB_OTG_GlobalTypeDef *USBx = hpcd->Instance;
 331:Drivers/STM32F1xx_HAL_Driver/Src/stm32f1xx_hal_pcd.c ****   uint32_t index = 0U, ep_intr = 0U, epint = 0U, epnum = 0U;
 332:Drivers/STM32F1xx_HAL_Driver/Src/stm32f1xx_hal_pcd.c ****   uint32_t fifoemptymsk = 0U, temp = 0U;
 333:Drivers/STM32F1xx_HAL_Driver/Src/stm32f1xx_hal_pcd.c ****   USB_OTG_EPTypeDef *ep = NULL;
 334:Drivers/STM32F1xx_HAL_Driver/Src/stm32f1xx_hal_pcd.c ****   
 335:Drivers/STM32F1xx_HAL_Driver/Src/stm32f1xx_hal_pcd.c ****   /* ensure that we are in device mode */
 336:Drivers/STM32F1xx_HAL_Driver/Src/stm32f1xx_hal_pcd.c ****   if (USB_GetMode(hpcd->Instance) == USB_OTG_MODE_DEVICE)
 337:Drivers/STM32F1xx_HAL_Driver/Src/stm32f1xx_hal_pcd.c ****   {
 338:Drivers/STM32F1xx_HAL_Driver/Src/stm32f1xx_hal_pcd.c ****     /* avoid spurious interrupt */
 339:Drivers/STM32F1xx_HAL_Driver/Src/stm32f1xx_hal_pcd.c ****     if(__HAL_PCD_IS_INVALID_INTERRUPT(hpcd))
 340:Drivers/STM32F1xx_HAL_Driver/Src/stm32f1xx_hal_pcd.c ****     {
 341:Drivers/STM32F1xx_HAL_Driver/Src/stm32f1xx_hal_pcd.c ****       return;
 342:Drivers/STM32F1xx_HAL_Driver/Src/stm32f1xx_hal_pcd.c ****     }
 343:Drivers/STM32F1xx_HAL_Driver/Src/stm32f1xx_hal_pcd.c ****     
 344:Drivers/STM32F1xx_HAL_Driver/Src/stm32f1xx_hal_pcd.c ****     if(__HAL_PCD_GET_FLAG(hpcd, USB_OTG_GINTSTS_MMIS))
 345:Drivers/STM32F1xx_HAL_Driver/Src/stm32f1xx_hal_pcd.c ****     {
 346:Drivers/STM32F1xx_HAL_Driver/Src/stm32f1xx_hal_pcd.c ****      /* incorrect mode, acknowledge the interrupt */
 347:Drivers/STM32F1xx_HAL_Driver/Src/stm32f1xx_hal_pcd.c ****       __HAL_PCD_CLEAR_FLAG(hpcd, USB_OTG_GINTSTS_MMIS);
 348:Drivers/STM32F1xx_HAL_Driver/Src/stm32f1xx_hal_pcd.c ****     }
 349:Drivers/STM32F1xx_HAL_Driver/Src/stm32f1xx_hal_pcd.c ****     
 350:Drivers/STM32F1xx_HAL_Driver/Src/stm32f1xx_hal_pcd.c ****     if(__HAL_PCD_GET_FLAG(hpcd, USB_OTG_GINTSTS_OEPINT))
 351:Drivers/STM32F1xx_HAL_Driver/Src/stm32f1xx_hal_pcd.c ****     {
 352:Drivers/STM32F1xx_HAL_Driver/Src/stm32f1xx_hal_pcd.c ****       epnum = 0U;
 353:Drivers/STM32F1xx_HAL_Driver/Src/stm32f1xx_hal_pcd.c ****       
 354:Drivers/STM32F1xx_HAL_Driver/Src/stm32f1xx_hal_pcd.c ****       /* Read in the device interrupt bits */
 355:Drivers/STM32F1xx_HAL_Driver/Src/stm32f1xx_hal_pcd.c ****       ep_intr = USB_ReadDevAllOutEpInterrupt(hpcd->Instance);
 356:Drivers/STM32F1xx_HAL_Driver/Src/stm32f1xx_hal_pcd.c ****       
 357:Drivers/STM32F1xx_HAL_Driver/Src/stm32f1xx_hal_pcd.c ****       while ( ep_intr )
 358:Drivers/STM32F1xx_HAL_Driver/Src/stm32f1xx_hal_pcd.c ****       {
 359:Drivers/STM32F1xx_HAL_Driver/Src/stm32f1xx_hal_pcd.c ****         if (ep_intr & 0x1U)
 360:Drivers/STM32F1xx_HAL_Driver/Src/stm32f1xx_hal_pcd.c ****         {
 361:Drivers/STM32F1xx_HAL_Driver/Src/stm32f1xx_hal_pcd.c ****           epint = USB_ReadDevOutEPInterrupt(hpcd->Instance, epnum);
ARM GAS  /tmp/cc956sXB.s 			page 15


 362:Drivers/STM32F1xx_HAL_Driver/Src/stm32f1xx_hal_pcd.c ****           
 363:Drivers/STM32F1xx_HAL_Driver/Src/stm32f1xx_hal_pcd.c ****           if(( epint & USB_OTG_DOEPINT_XFRC) == USB_OTG_DOEPINT_XFRC)
 364:Drivers/STM32F1xx_HAL_Driver/Src/stm32f1xx_hal_pcd.c ****           {
 365:Drivers/STM32F1xx_HAL_Driver/Src/stm32f1xx_hal_pcd.c ****             CLEAR_OUT_EP_INTR(epnum, USB_OTG_DOEPINT_XFRC);
 366:Drivers/STM32F1xx_HAL_Driver/Src/stm32f1xx_hal_pcd.c ****             
 367:Drivers/STM32F1xx_HAL_Driver/Src/stm32f1xx_hal_pcd.c ****             HAL_PCD_DataOutStageCallback(hpcd, epnum);
 368:Drivers/STM32F1xx_HAL_Driver/Src/stm32f1xx_hal_pcd.c ****           }
 369:Drivers/STM32F1xx_HAL_Driver/Src/stm32f1xx_hal_pcd.c ****           
 370:Drivers/STM32F1xx_HAL_Driver/Src/stm32f1xx_hal_pcd.c ****           if(( epint & USB_OTG_DOEPINT_STUP) == USB_OTG_DOEPINT_STUP)
 371:Drivers/STM32F1xx_HAL_Driver/Src/stm32f1xx_hal_pcd.c ****           {
 372:Drivers/STM32F1xx_HAL_Driver/Src/stm32f1xx_hal_pcd.c ****             /* Inform the upper layer that a setup packet is available */
 373:Drivers/STM32F1xx_HAL_Driver/Src/stm32f1xx_hal_pcd.c ****             HAL_PCD_SetupStageCallback(hpcd);
 374:Drivers/STM32F1xx_HAL_Driver/Src/stm32f1xx_hal_pcd.c ****             CLEAR_OUT_EP_INTR(epnum, USB_OTG_DOEPINT_STUP);
 375:Drivers/STM32F1xx_HAL_Driver/Src/stm32f1xx_hal_pcd.c ****           }
 376:Drivers/STM32F1xx_HAL_Driver/Src/stm32f1xx_hal_pcd.c ****           
 377:Drivers/STM32F1xx_HAL_Driver/Src/stm32f1xx_hal_pcd.c ****           if(( epint & USB_OTG_DOEPINT_OTEPDIS) == USB_OTG_DOEPINT_OTEPDIS)
 378:Drivers/STM32F1xx_HAL_Driver/Src/stm32f1xx_hal_pcd.c ****           {
 379:Drivers/STM32F1xx_HAL_Driver/Src/stm32f1xx_hal_pcd.c ****             CLEAR_OUT_EP_INTR(epnum, USB_OTG_DOEPINT_OTEPDIS);
 380:Drivers/STM32F1xx_HAL_Driver/Src/stm32f1xx_hal_pcd.c ****           }
 381:Drivers/STM32F1xx_HAL_Driver/Src/stm32f1xx_hal_pcd.c ****         }
 382:Drivers/STM32F1xx_HAL_Driver/Src/stm32f1xx_hal_pcd.c ****         epnum++;
 383:Drivers/STM32F1xx_HAL_Driver/Src/stm32f1xx_hal_pcd.c ****         ep_intr >>= 1U;
 384:Drivers/STM32F1xx_HAL_Driver/Src/stm32f1xx_hal_pcd.c ****       }
 385:Drivers/STM32F1xx_HAL_Driver/Src/stm32f1xx_hal_pcd.c ****     }
 386:Drivers/STM32F1xx_HAL_Driver/Src/stm32f1xx_hal_pcd.c ****     
 387:Drivers/STM32F1xx_HAL_Driver/Src/stm32f1xx_hal_pcd.c ****     if(__HAL_PCD_GET_FLAG(hpcd, USB_OTG_GINTSTS_IEPINT))
 388:Drivers/STM32F1xx_HAL_Driver/Src/stm32f1xx_hal_pcd.c ****     {
 389:Drivers/STM32F1xx_HAL_Driver/Src/stm32f1xx_hal_pcd.c ****       /* Read in the device interrupt bits */
 390:Drivers/STM32F1xx_HAL_Driver/Src/stm32f1xx_hal_pcd.c ****       ep_intr = USB_ReadDevAllInEpInterrupt(hpcd->Instance);
 391:Drivers/STM32F1xx_HAL_Driver/Src/stm32f1xx_hal_pcd.c ****       
 392:Drivers/STM32F1xx_HAL_Driver/Src/stm32f1xx_hal_pcd.c ****       epnum = 0U;
 393:Drivers/STM32F1xx_HAL_Driver/Src/stm32f1xx_hal_pcd.c ****       
 394:Drivers/STM32F1xx_HAL_Driver/Src/stm32f1xx_hal_pcd.c ****       while ( ep_intr )
 395:Drivers/STM32F1xx_HAL_Driver/Src/stm32f1xx_hal_pcd.c ****       {
 396:Drivers/STM32F1xx_HAL_Driver/Src/stm32f1xx_hal_pcd.c ****         if (ep_intr & 0x1U) /* In ITR */
 397:Drivers/STM32F1xx_HAL_Driver/Src/stm32f1xx_hal_pcd.c ****         {
 398:Drivers/STM32F1xx_HAL_Driver/Src/stm32f1xx_hal_pcd.c ****           epint = USB_ReadDevInEPInterrupt(hpcd->Instance, epnum);
 399:Drivers/STM32F1xx_HAL_Driver/Src/stm32f1xx_hal_pcd.c **** 
 400:Drivers/STM32F1xx_HAL_Driver/Src/stm32f1xx_hal_pcd.c ****           if(( epint & USB_OTG_DIEPINT_XFRC) == USB_OTG_DIEPINT_XFRC)
 401:Drivers/STM32F1xx_HAL_Driver/Src/stm32f1xx_hal_pcd.c ****           {
 402:Drivers/STM32F1xx_HAL_Driver/Src/stm32f1xx_hal_pcd.c ****             fifoemptymsk = 0x1U << epnum;
 403:Drivers/STM32F1xx_HAL_Driver/Src/stm32f1xx_hal_pcd.c ****             USBx_DEVICE->DIEPEMPMSK &= ~fifoemptymsk;
 404:Drivers/STM32F1xx_HAL_Driver/Src/stm32f1xx_hal_pcd.c ****             
 405:Drivers/STM32F1xx_HAL_Driver/Src/stm32f1xx_hal_pcd.c ****             CLEAR_IN_EP_INTR(epnum, USB_OTG_DIEPINT_XFRC);
 406:Drivers/STM32F1xx_HAL_Driver/Src/stm32f1xx_hal_pcd.c ****             
 407:Drivers/STM32F1xx_HAL_Driver/Src/stm32f1xx_hal_pcd.c ****             HAL_PCD_DataInStageCallback(hpcd, epnum);
 408:Drivers/STM32F1xx_HAL_Driver/Src/stm32f1xx_hal_pcd.c ****           }
 409:Drivers/STM32F1xx_HAL_Driver/Src/stm32f1xx_hal_pcd.c ****           if(( epint & USB_OTG_DIEPINT_TOC) == USB_OTG_DIEPINT_TOC)
 410:Drivers/STM32F1xx_HAL_Driver/Src/stm32f1xx_hal_pcd.c ****           {
 411:Drivers/STM32F1xx_HAL_Driver/Src/stm32f1xx_hal_pcd.c ****             CLEAR_IN_EP_INTR(epnum, USB_OTG_DIEPINT_TOC);
 412:Drivers/STM32F1xx_HAL_Driver/Src/stm32f1xx_hal_pcd.c ****           }
 413:Drivers/STM32F1xx_HAL_Driver/Src/stm32f1xx_hal_pcd.c ****           if(( epint & USB_OTG_DIEPINT_ITTXFE) == USB_OTG_DIEPINT_ITTXFE)
 414:Drivers/STM32F1xx_HAL_Driver/Src/stm32f1xx_hal_pcd.c ****           {
 415:Drivers/STM32F1xx_HAL_Driver/Src/stm32f1xx_hal_pcd.c ****             CLEAR_IN_EP_INTR(epnum, USB_OTG_DIEPINT_ITTXFE);
 416:Drivers/STM32F1xx_HAL_Driver/Src/stm32f1xx_hal_pcd.c ****           }
 417:Drivers/STM32F1xx_HAL_Driver/Src/stm32f1xx_hal_pcd.c ****           if(( epint & USB_OTG_DIEPINT_INEPNE) == USB_OTG_DIEPINT_INEPNE)
 418:Drivers/STM32F1xx_HAL_Driver/Src/stm32f1xx_hal_pcd.c ****           {
ARM GAS  /tmp/cc956sXB.s 			page 16


 419:Drivers/STM32F1xx_HAL_Driver/Src/stm32f1xx_hal_pcd.c ****             CLEAR_IN_EP_INTR(epnum, USB_OTG_DIEPINT_INEPNE);
 420:Drivers/STM32F1xx_HAL_Driver/Src/stm32f1xx_hal_pcd.c ****           }
 421:Drivers/STM32F1xx_HAL_Driver/Src/stm32f1xx_hal_pcd.c ****           if(( epint & USB_OTG_DIEPINT_EPDISD) == USB_OTG_DIEPINT_EPDISD)
 422:Drivers/STM32F1xx_HAL_Driver/Src/stm32f1xx_hal_pcd.c ****           {
 423:Drivers/STM32F1xx_HAL_Driver/Src/stm32f1xx_hal_pcd.c ****             CLEAR_IN_EP_INTR(epnum, USB_OTG_DIEPINT_EPDISD);
 424:Drivers/STM32F1xx_HAL_Driver/Src/stm32f1xx_hal_pcd.c ****           }
 425:Drivers/STM32F1xx_HAL_Driver/Src/stm32f1xx_hal_pcd.c ****           if(( epint & USB_OTG_DIEPINT_TXFE) == USB_OTG_DIEPINT_TXFE)
 426:Drivers/STM32F1xx_HAL_Driver/Src/stm32f1xx_hal_pcd.c ****           {
 427:Drivers/STM32F1xx_HAL_Driver/Src/stm32f1xx_hal_pcd.c ****             PCD_WriteEmptyTxFifo(hpcd , epnum);
 428:Drivers/STM32F1xx_HAL_Driver/Src/stm32f1xx_hal_pcd.c ****           }
 429:Drivers/STM32F1xx_HAL_Driver/Src/stm32f1xx_hal_pcd.c ****         }
 430:Drivers/STM32F1xx_HAL_Driver/Src/stm32f1xx_hal_pcd.c ****         epnum++;
 431:Drivers/STM32F1xx_HAL_Driver/Src/stm32f1xx_hal_pcd.c ****         ep_intr >>= 1U;
 432:Drivers/STM32F1xx_HAL_Driver/Src/stm32f1xx_hal_pcd.c ****       }
 433:Drivers/STM32F1xx_HAL_Driver/Src/stm32f1xx_hal_pcd.c ****     }
 434:Drivers/STM32F1xx_HAL_Driver/Src/stm32f1xx_hal_pcd.c ****     
 435:Drivers/STM32F1xx_HAL_Driver/Src/stm32f1xx_hal_pcd.c ****     /* Handle Resume Interrupt */
 436:Drivers/STM32F1xx_HAL_Driver/Src/stm32f1xx_hal_pcd.c ****     if(__HAL_PCD_GET_FLAG(hpcd, USB_OTG_GINTSTS_WKUINT))
 437:Drivers/STM32F1xx_HAL_Driver/Src/stm32f1xx_hal_pcd.c ****     {
 438:Drivers/STM32F1xx_HAL_Driver/Src/stm32f1xx_hal_pcd.c ****      /* Clear the Remote Wake-up signalling */
 439:Drivers/STM32F1xx_HAL_Driver/Src/stm32f1xx_hal_pcd.c ****       USBx_DEVICE->DCTL &= ~USB_OTG_DCTL_RWUSIG;
 440:Drivers/STM32F1xx_HAL_Driver/Src/stm32f1xx_hal_pcd.c ****      
 441:Drivers/STM32F1xx_HAL_Driver/Src/stm32f1xx_hal_pcd.c ****      HAL_PCD_ResumeCallback(hpcd);
 442:Drivers/STM32F1xx_HAL_Driver/Src/stm32f1xx_hal_pcd.c ****      
 443:Drivers/STM32F1xx_HAL_Driver/Src/stm32f1xx_hal_pcd.c ****      __HAL_PCD_CLEAR_FLAG(hpcd, USB_OTG_GINTSTS_WKUINT);
 444:Drivers/STM32F1xx_HAL_Driver/Src/stm32f1xx_hal_pcd.c ****     }
 445:Drivers/STM32F1xx_HAL_Driver/Src/stm32f1xx_hal_pcd.c ****     
 446:Drivers/STM32F1xx_HAL_Driver/Src/stm32f1xx_hal_pcd.c ****     /* Handle Suspend Interrupt */
 447:Drivers/STM32F1xx_HAL_Driver/Src/stm32f1xx_hal_pcd.c ****     if(__HAL_PCD_GET_FLAG(hpcd, USB_OTG_GINTSTS_USBSUSP))
 448:Drivers/STM32F1xx_HAL_Driver/Src/stm32f1xx_hal_pcd.c ****     {
 449:Drivers/STM32F1xx_HAL_Driver/Src/stm32f1xx_hal_pcd.c ****       if((USBx_DEVICE->DSTS & USB_OTG_DSTS_SUSPSTS) == USB_OTG_DSTS_SUSPSTS)
 450:Drivers/STM32F1xx_HAL_Driver/Src/stm32f1xx_hal_pcd.c ****       {
 451:Drivers/STM32F1xx_HAL_Driver/Src/stm32f1xx_hal_pcd.c ****         
 452:Drivers/STM32F1xx_HAL_Driver/Src/stm32f1xx_hal_pcd.c ****         HAL_PCD_SuspendCallback(hpcd);
 453:Drivers/STM32F1xx_HAL_Driver/Src/stm32f1xx_hal_pcd.c ****       }
 454:Drivers/STM32F1xx_HAL_Driver/Src/stm32f1xx_hal_pcd.c ****       __HAL_PCD_CLEAR_FLAG(hpcd, USB_OTG_GINTSTS_USBSUSP);
 455:Drivers/STM32F1xx_HAL_Driver/Src/stm32f1xx_hal_pcd.c ****     }
 456:Drivers/STM32F1xx_HAL_Driver/Src/stm32f1xx_hal_pcd.c **** 
 457:Drivers/STM32F1xx_HAL_Driver/Src/stm32f1xx_hal_pcd.c ****     /* Handle Reset Interrupt */
 458:Drivers/STM32F1xx_HAL_Driver/Src/stm32f1xx_hal_pcd.c ****     if(__HAL_PCD_GET_FLAG(hpcd, USB_OTG_GINTSTS_USBRST))
 459:Drivers/STM32F1xx_HAL_Driver/Src/stm32f1xx_hal_pcd.c ****     {
 460:Drivers/STM32F1xx_HAL_Driver/Src/stm32f1xx_hal_pcd.c ****       USBx_DEVICE->DCTL &= ~USB_OTG_DCTL_RWUSIG; 
 461:Drivers/STM32F1xx_HAL_Driver/Src/stm32f1xx_hal_pcd.c ****       USB_FlushTxFifo(hpcd->Instance ,  0x10U);
 462:Drivers/STM32F1xx_HAL_Driver/Src/stm32f1xx_hal_pcd.c ****       
 463:Drivers/STM32F1xx_HAL_Driver/Src/stm32f1xx_hal_pcd.c ****       for (index = 0U; index < hpcd->Init.dev_endpoints ; index++)
 464:Drivers/STM32F1xx_HAL_Driver/Src/stm32f1xx_hal_pcd.c ****       {
 465:Drivers/STM32F1xx_HAL_Driver/Src/stm32f1xx_hal_pcd.c ****         USBx_INEP(index)->DIEPINT = 0xFFU;
 466:Drivers/STM32F1xx_HAL_Driver/Src/stm32f1xx_hal_pcd.c ****         USBx_OUTEP(index)->DOEPINT = 0xFFU;
 467:Drivers/STM32F1xx_HAL_Driver/Src/stm32f1xx_hal_pcd.c ****       }
 468:Drivers/STM32F1xx_HAL_Driver/Src/stm32f1xx_hal_pcd.c ****       USBx_DEVICE->DAINT = 0xFFFFFFFFU;
 469:Drivers/STM32F1xx_HAL_Driver/Src/stm32f1xx_hal_pcd.c ****       USBx_DEVICE->DAINTMSK |= 0x10001U;
 470:Drivers/STM32F1xx_HAL_Driver/Src/stm32f1xx_hal_pcd.c ****       
 471:Drivers/STM32F1xx_HAL_Driver/Src/stm32f1xx_hal_pcd.c ****       USBx_DEVICE->DOEPMSK |= (USB_OTG_DOEPMSK_STUPM | USB_OTG_DOEPMSK_XFRCM | USB_OTG_DOEPMSK_EPDM
 472:Drivers/STM32F1xx_HAL_Driver/Src/stm32f1xx_hal_pcd.c ****       USBx_DEVICE->DIEPMSK |= (USB_OTG_DIEPMSK_TOM | USB_OTG_DIEPMSK_XFRCM | USB_OTG_DIEPMSK_EPDM);
 473:Drivers/STM32F1xx_HAL_Driver/Src/stm32f1xx_hal_pcd.c ****       
 474:Drivers/STM32F1xx_HAL_Driver/Src/stm32f1xx_hal_pcd.c ****       /* Set Default Address to 0 */
 475:Drivers/STM32F1xx_HAL_Driver/Src/stm32f1xx_hal_pcd.c ****       USBx_DEVICE->DCFG &= ~USB_OTG_DCFG_DAD;
ARM GAS  /tmp/cc956sXB.s 			page 17


 476:Drivers/STM32F1xx_HAL_Driver/Src/stm32f1xx_hal_pcd.c ****       
 477:Drivers/STM32F1xx_HAL_Driver/Src/stm32f1xx_hal_pcd.c ****       /* setup EP0 to receive SETUP packets */
 478:Drivers/STM32F1xx_HAL_Driver/Src/stm32f1xx_hal_pcd.c ****       USB_EP0_OutStart(hpcd->Instance, (uint8_t *)hpcd->Setup);
 479:Drivers/STM32F1xx_HAL_Driver/Src/stm32f1xx_hal_pcd.c ****       
 480:Drivers/STM32F1xx_HAL_Driver/Src/stm32f1xx_hal_pcd.c ****       __HAL_PCD_CLEAR_FLAG(hpcd, USB_OTG_GINTSTS_USBRST);
 481:Drivers/STM32F1xx_HAL_Driver/Src/stm32f1xx_hal_pcd.c ****     }
 482:Drivers/STM32F1xx_HAL_Driver/Src/stm32f1xx_hal_pcd.c ****     
 483:Drivers/STM32F1xx_HAL_Driver/Src/stm32f1xx_hal_pcd.c ****     /* Handle Enumeration done Interrupt */
 484:Drivers/STM32F1xx_HAL_Driver/Src/stm32f1xx_hal_pcd.c ****     if(__HAL_PCD_GET_FLAG(hpcd, USB_OTG_GINTSTS_ENUMDNE))
 485:Drivers/STM32F1xx_HAL_Driver/Src/stm32f1xx_hal_pcd.c ****     {
 486:Drivers/STM32F1xx_HAL_Driver/Src/stm32f1xx_hal_pcd.c ****       USB_ActivateSetup(hpcd->Instance);
 487:Drivers/STM32F1xx_HAL_Driver/Src/stm32f1xx_hal_pcd.c ****       hpcd->Instance->GUSBCFG &= ~USB_OTG_GUSBCFG_TRDT;
 488:Drivers/STM32F1xx_HAL_Driver/Src/stm32f1xx_hal_pcd.c ****       
 489:Drivers/STM32F1xx_HAL_Driver/Src/stm32f1xx_hal_pcd.c ****       hpcd->Init.speed            = USB_OTG_SPEED_FULL;
 490:Drivers/STM32F1xx_HAL_Driver/Src/stm32f1xx_hal_pcd.c ****       hpcd->Init.ep0_mps          = USB_OTG_FS_MAX_PACKET_SIZE ;
 491:Drivers/STM32F1xx_HAL_Driver/Src/stm32f1xx_hal_pcd.c ****       hpcd->Instance->GUSBCFG |= (uint32_t)((USBD_FS_TRDT_VALUE << 10U) & USB_OTG_GUSBCFG_TRDT);
 492:Drivers/STM32F1xx_HAL_Driver/Src/stm32f1xx_hal_pcd.c ****       
 493:Drivers/STM32F1xx_HAL_Driver/Src/stm32f1xx_hal_pcd.c ****       HAL_PCD_ResetCallback(hpcd);
 494:Drivers/STM32F1xx_HAL_Driver/Src/stm32f1xx_hal_pcd.c ****       
 495:Drivers/STM32F1xx_HAL_Driver/Src/stm32f1xx_hal_pcd.c ****       __HAL_PCD_CLEAR_FLAG(hpcd, USB_OTG_GINTSTS_ENUMDNE);
 496:Drivers/STM32F1xx_HAL_Driver/Src/stm32f1xx_hal_pcd.c ****     }
 497:Drivers/STM32F1xx_HAL_Driver/Src/stm32f1xx_hal_pcd.c **** 
 498:Drivers/STM32F1xx_HAL_Driver/Src/stm32f1xx_hal_pcd.c ****     /* Handle RxQLevel Interrupt */
 499:Drivers/STM32F1xx_HAL_Driver/Src/stm32f1xx_hal_pcd.c ****     if(__HAL_PCD_GET_FLAG(hpcd, USB_OTG_GINTSTS_RXFLVL))
 500:Drivers/STM32F1xx_HAL_Driver/Src/stm32f1xx_hal_pcd.c ****     {
 501:Drivers/STM32F1xx_HAL_Driver/Src/stm32f1xx_hal_pcd.c ****       USB_MASK_INTERRUPT(hpcd->Instance, USB_OTG_GINTSTS_RXFLVL);
 502:Drivers/STM32F1xx_HAL_Driver/Src/stm32f1xx_hal_pcd.c ****       temp = USBx->GRXSTSP;
 503:Drivers/STM32F1xx_HAL_Driver/Src/stm32f1xx_hal_pcd.c ****       ep = &hpcd->OUT_ep[temp & USB_OTG_GRXSTSP_EPNUM];
 504:Drivers/STM32F1xx_HAL_Driver/Src/stm32f1xx_hal_pcd.c ****       
 505:Drivers/STM32F1xx_HAL_Driver/Src/stm32f1xx_hal_pcd.c ****       if(((temp & USB_OTG_GRXSTSP_PKTSTS) >> 17U) ==  STS_DATA_UPDT)
 506:Drivers/STM32F1xx_HAL_Driver/Src/stm32f1xx_hal_pcd.c ****       {
 507:Drivers/STM32F1xx_HAL_Driver/Src/stm32f1xx_hal_pcd.c ****         if((temp & USB_OTG_GRXSTSP_BCNT) != 0U)
 508:Drivers/STM32F1xx_HAL_Driver/Src/stm32f1xx_hal_pcd.c ****         {
 509:Drivers/STM32F1xx_HAL_Driver/Src/stm32f1xx_hal_pcd.c ****           USB_ReadPacket(USBx, ep->xfer_buff, (temp & USB_OTG_GRXSTSP_BCNT) >> 4U);
 510:Drivers/STM32F1xx_HAL_Driver/Src/stm32f1xx_hal_pcd.c ****           ep->xfer_buff += (temp & USB_OTG_GRXSTSP_BCNT) >> 4U;
 511:Drivers/STM32F1xx_HAL_Driver/Src/stm32f1xx_hal_pcd.c ****           ep->xfer_count += (temp & USB_OTG_GRXSTSP_BCNT) >> 4U;
 512:Drivers/STM32F1xx_HAL_Driver/Src/stm32f1xx_hal_pcd.c ****         }
 513:Drivers/STM32F1xx_HAL_Driver/Src/stm32f1xx_hal_pcd.c ****       }
 514:Drivers/STM32F1xx_HAL_Driver/Src/stm32f1xx_hal_pcd.c ****       else if (((temp & USB_OTG_GRXSTSP_PKTSTS) >> 17U) ==  STS_SETUP_UPDT)
 515:Drivers/STM32F1xx_HAL_Driver/Src/stm32f1xx_hal_pcd.c ****       {
 516:Drivers/STM32F1xx_HAL_Driver/Src/stm32f1xx_hal_pcd.c ****         USB_ReadPacket(USBx, (uint8_t *)hpcd->Setup, 8U);
 517:Drivers/STM32F1xx_HAL_Driver/Src/stm32f1xx_hal_pcd.c ****         ep->xfer_count += (temp & USB_OTG_GRXSTSP_BCNT) >> 4U;
 518:Drivers/STM32F1xx_HAL_Driver/Src/stm32f1xx_hal_pcd.c ****       }
 519:Drivers/STM32F1xx_HAL_Driver/Src/stm32f1xx_hal_pcd.c ****       USB_UNMASK_INTERRUPT(hpcd->Instance, USB_OTG_GINTSTS_RXFLVL);
 520:Drivers/STM32F1xx_HAL_Driver/Src/stm32f1xx_hal_pcd.c ****     }
 521:Drivers/STM32F1xx_HAL_Driver/Src/stm32f1xx_hal_pcd.c ****     
 522:Drivers/STM32F1xx_HAL_Driver/Src/stm32f1xx_hal_pcd.c ****     /* Handle SOF Interrupt */
 523:Drivers/STM32F1xx_HAL_Driver/Src/stm32f1xx_hal_pcd.c ****     if(__HAL_PCD_GET_FLAG(hpcd, USB_OTG_GINTSTS_SOF))
 524:Drivers/STM32F1xx_HAL_Driver/Src/stm32f1xx_hal_pcd.c ****     {
 525:Drivers/STM32F1xx_HAL_Driver/Src/stm32f1xx_hal_pcd.c ****       HAL_PCD_SOFCallback(hpcd);
 526:Drivers/STM32F1xx_HAL_Driver/Src/stm32f1xx_hal_pcd.c ****       __HAL_PCD_CLEAR_FLAG(hpcd, USB_OTG_GINTSTS_SOF);
 527:Drivers/STM32F1xx_HAL_Driver/Src/stm32f1xx_hal_pcd.c ****     }
 528:Drivers/STM32F1xx_HAL_Driver/Src/stm32f1xx_hal_pcd.c ****     
 529:Drivers/STM32F1xx_HAL_Driver/Src/stm32f1xx_hal_pcd.c ****     /* Handle Incomplete ISO IN Interrupt */
 530:Drivers/STM32F1xx_HAL_Driver/Src/stm32f1xx_hal_pcd.c ****     if(__HAL_PCD_GET_FLAG(hpcd, USB_OTG_GINTSTS_IISOIXFR))
 531:Drivers/STM32F1xx_HAL_Driver/Src/stm32f1xx_hal_pcd.c ****     {
 532:Drivers/STM32F1xx_HAL_Driver/Src/stm32f1xx_hal_pcd.c ****       HAL_PCD_ISOINIncompleteCallback(hpcd, epnum);
ARM GAS  /tmp/cc956sXB.s 			page 18


 533:Drivers/STM32F1xx_HAL_Driver/Src/stm32f1xx_hal_pcd.c ****       __HAL_PCD_CLEAR_FLAG(hpcd, USB_OTG_GINTSTS_IISOIXFR);
 534:Drivers/STM32F1xx_HAL_Driver/Src/stm32f1xx_hal_pcd.c ****     }
 535:Drivers/STM32F1xx_HAL_Driver/Src/stm32f1xx_hal_pcd.c ****     
 536:Drivers/STM32F1xx_HAL_Driver/Src/stm32f1xx_hal_pcd.c ****     /* Handle Incomplete ISO OUT Interrupt */
 537:Drivers/STM32F1xx_HAL_Driver/Src/stm32f1xx_hal_pcd.c ****     if(__HAL_PCD_GET_FLAG(hpcd, USB_OTG_GINTSTS_PXFR_INCOMPISOOUT))
 538:Drivers/STM32F1xx_HAL_Driver/Src/stm32f1xx_hal_pcd.c ****     {
 539:Drivers/STM32F1xx_HAL_Driver/Src/stm32f1xx_hal_pcd.c ****       HAL_PCD_ISOOUTIncompleteCallback(hpcd, epnum);
 540:Drivers/STM32F1xx_HAL_Driver/Src/stm32f1xx_hal_pcd.c ****       __HAL_PCD_CLEAR_FLAG(hpcd, USB_OTG_GINTSTS_PXFR_INCOMPISOOUT);
 541:Drivers/STM32F1xx_HAL_Driver/Src/stm32f1xx_hal_pcd.c ****     }
 542:Drivers/STM32F1xx_HAL_Driver/Src/stm32f1xx_hal_pcd.c ****     
 543:Drivers/STM32F1xx_HAL_Driver/Src/stm32f1xx_hal_pcd.c ****     /* Handle Connection event Interrupt */
 544:Drivers/STM32F1xx_HAL_Driver/Src/stm32f1xx_hal_pcd.c ****     if(__HAL_PCD_GET_FLAG(hpcd, USB_OTG_GINTSTS_SRQINT))
 545:Drivers/STM32F1xx_HAL_Driver/Src/stm32f1xx_hal_pcd.c ****     {
 546:Drivers/STM32F1xx_HAL_Driver/Src/stm32f1xx_hal_pcd.c ****       HAL_PCD_ConnectCallback(hpcd);
 547:Drivers/STM32F1xx_HAL_Driver/Src/stm32f1xx_hal_pcd.c ****       __HAL_PCD_CLEAR_FLAG(hpcd, USB_OTG_GINTSTS_SRQINT);
 548:Drivers/STM32F1xx_HAL_Driver/Src/stm32f1xx_hal_pcd.c ****     }
 549:Drivers/STM32F1xx_HAL_Driver/Src/stm32f1xx_hal_pcd.c ****     
 550:Drivers/STM32F1xx_HAL_Driver/Src/stm32f1xx_hal_pcd.c ****     /* Handle Disconnection event Interrupt */
 551:Drivers/STM32F1xx_HAL_Driver/Src/stm32f1xx_hal_pcd.c ****     if(__HAL_PCD_GET_FLAG(hpcd, USB_OTG_GINTSTS_OTGINT))
 552:Drivers/STM32F1xx_HAL_Driver/Src/stm32f1xx_hal_pcd.c ****     {
 553:Drivers/STM32F1xx_HAL_Driver/Src/stm32f1xx_hal_pcd.c ****       temp = hpcd->Instance->GOTGINT;
 554:Drivers/STM32F1xx_HAL_Driver/Src/stm32f1xx_hal_pcd.c ****       
 555:Drivers/STM32F1xx_HAL_Driver/Src/stm32f1xx_hal_pcd.c ****       if((temp & USB_OTG_GOTGINT_SEDET) == USB_OTG_GOTGINT_SEDET)
 556:Drivers/STM32F1xx_HAL_Driver/Src/stm32f1xx_hal_pcd.c ****       {
 557:Drivers/STM32F1xx_HAL_Driver/Src/stm32f1xx_hal_pcd.c ****         HAL_PCD_DisconnectCallback(hpcd);
 558:Drivers/STM32F1xx_HAL_Driver/Src/stm32f1xx_hal_pcd.c ****       }
 559:Drivers/STM32F1xx_HAL_Driver/Src/stm32f1xx_hal_pcd.c ****       hpcd->Instance->GOTGINT |= temp;
 560:Drivers/STM32F1xx_HAL_Driver/Src/stm32f1xx_hal_pcd.c ****     }
 561:Drivers/STM32F1xx_HAL_Driver/Src/stm32f1xx_hal_pcd.c ****   }
 562:Drivers/STM32F1xx_HAL_Driver/Src/stm32f1xx_hal_pcd.c **** }
 563:Drivers/STM32F1xx_HAL_Driver/Src/stm32f1xx_hal_pcd.c **** #endif /* USB_OTG_FS */
 564:Drivers/STM32F1xx_HAL_Driver/Src/stm32f1xx_hal_pcd.c **** 
 565:Drivers/STM32F1xx_HAL_Driver/Src/stm32f1xx_hal_pcd.c **** #if defined (USB)
 566:Drivers/STM32F1xx_HAL_Driver/Src/stm32f1xx_hal_pcd.c **** /**
 567:Drivers/STM32F1xx_HAL_Driver/Src/stm32f1xx_hal_pcd.c ****   * @brief  This function handles PCD interrupt request.
 568:Drivers/STM32F1xx_HAL_Driver/Src/stm32f1xx_hal_pcd.c ****   * @param  hpcd: PCD handle
 569:Drivers/STM32F1xx_HAL_Driver/Src/stm32f1xx_hal_pcd.c ****   * @retval HAL status
 570:Drivers/STM32F1xx_HAL_Driver/Src/stm32f1xx_hal_pcd.c ****   */
 571:Drivers/STM32F1xx_HAL_Driver/Src/stm32f1xx_hal_pcd.c **** void HAL_PCD_IRQHandler(PCD_HandleTypeDef *hpcd)
 572:Drivers/STM32F1xx_HAL_Driver/Src/stm32f1xx_hal_pcd.c **** { 
 573:Drivers/STM32F1xx_HAL_Driver/Src/stm32f1xx_hal_pcd.c ****   if (__HAL_PCD_GET_FLAG (hpcd, USB_ISTR_CTR))
 574:Drivers/STM32F1xx_HAL_Driver/Src/stm32f1xx_hal_pcd.c ****   {
 575:Drivers/STM32F1xx_HAL_Driver/Src/stm32f1xx_hal_pcd.c ****     /* servicing of the endpoint correct transfer interrupt */
 576:Drivers/STM32F1xx_HAL_Driver/Src/stm32f1xx_hal_pcd.c ****     /* clear of the CTR flag into the sub */
 577:Drivers/STM32F1xx_HAL_Driver/Src/stm32f1xx_hal_pcd.c ****     PCD_EP_ISR_Handler(hpcd);
 578:Drivers/STM32F1xx_HAL_Driver/Src/stm32f1xx_hal_pcd.c ****   }
 579:Drivers/STM32F1xx_HAL_Driver/Src/stm32f1xx_hal_pcd.c **** 
 580:Drivers/STM32F1xx_HAL_Driver/Src/stm32f1xx_hal_pcd.c ****   if (__HAL_PCD_GET_FLAG (hpcd, USB_ISTR_RESET))
 581:Drivers/STM32F1xx_HAL_Driver/Src/stm32f1xx_hal_pcd.c ****   {
 582:Drivers/STM32F1xx_HAL_Driver/Src/stm32f1xx_hal_pcd.c ****     __HAL_PCD_CLEAR_FLAG(hpcd, USB_ISTR_RESET);
 583:Drivers/STM32F1xx_HAL_Driver/Src/stm32f1xx_hal_pcd.c ****     HAL_PCD_ResetCallback(hpcd);
 584:Drivers/STM32F1xx_HAL_Driver/Src/stm32f1xx_hal_pcd.c ****     HAL_PCD_SetAddress(hpcd, 0U);
 585:Drivers/STM32F1xx_HAL_Driver/Src/stm32f1xx_hal_pcd.c ****   }
 586:Drivers/STM32F1xx_HAL_Driver/Src/stm32f1xx_hal_pcd.c **** 
 587:Drivers/STM32F1xx_HAL_Driver/Src/stm32f1xx_hal_pcd.c ****   if (__HAL_PCD_GET_FLAG (hpcd, USB_ISTR_PMAOVR))
 588:Drivers/STM32F1xx_HAL_Driver/Src/stm32f1xx_hal_pcd.c ****   {
 589:Drivers/STM32F1xx_HAL_Driver/Src/stm32f1xx_hal_pcd.c ****     __HAL_PCD_CLEAR_FLAG(hpcd, USB_ISTR_PMAOVR);    
ARM GAS  /tmp/cc956sXB.s 			page 19


 590:Drivers/STM32F1xx_HAL_Driver/Src/stm32f1xx_hal_pcd.c ****   }
 591:Drivers/STM32F1xx_HAL_Driver/Src/stm32f1xx_hal_pcd.c ****   if (__HAL_PCD_GET_FLAG (hpcd, USB_ISTR_ERR))
 592:Drivers/STM32F1xx_HAL_Driver/Src/stm32f1xx_hal_pcd.c ****   {
 593:Drivers/STM32F1xx_HAL_Driver/Src/stm32f1xx_hal_pcd.c ****     __HAL_PCD_CLEAR_FLAG(hpcd, USB_ISTR_ERR); 
 594:Drivers/STM32F1xx_HAL_Driver/Src/stm32f1xx_hal_pcd.c ****   }
 595:Drivers/STM32F1xx_HAL_Driver/Src/stm32f1xx_hal_pcd.c **** 
 596:Drivers/STM32F1xx_HAL_Driver/Src/stm32f1xx_hal_pcd.c ****   if (__HAL_PCD_GET_FLAG (hpcd, USB_ISTR_WKUP))
 597:Drivers/STM32F1xx_HAL_Driver/Src/stm32f1xx_hal_pcd.c ****   {
 598:Drivers/STM32F1xx_HAL_Driver/Src/stm32f1xx_hal_pcd.c ****     hpcd->Instance->CNTR &= ~(USB_CNTR_LP_MODE);
 599:Drivers/STM32F1xx_HAL_Driver/Src/stm32f1xx_hal_pcd.c ****     hpcd->Instance->CNTR &= ~(USB_CNTR_FSUSP);
 600:Drivers/STM32F1xx_HAL_Driver/Src/stm32f1xx_hal_pcd.c ****     
 601:Drivers/STM32F1xx_HAL_Driver/Src/stm32f1xx_hal_pcd.c ****     HAL_PCD_ResumeCallback(hpcd);
 602:Drivers/STM32F1xx_HAL_Driver/Src/stm32f1xx_hal_pcd.c **** 
 603:Drivers/STM32F1xx_HAL_Driver/Src/stm32f1xx_hal_pcd.c ****     __HAL_PCD_CLEAR_FLAG(hpcd, USB_ISTR_WKUP);     
 604:Drivers/STM32F1xx_HAL_Driver/Src/stm32f1xx_hal_pcd.c ****   }
 605:Drivers/STM32F1xx_HAL_Driver/Src/stm32f1xx_hal_pcd.c **** 
 606:Drivers/STM32F1xx_HAL_Driver/Src/stm32f1xx_hal_pcd.c ****   if (__HAL_PCD_GET_FLAG (hpcd, USB_ISTR_SUSP))
 607:Drivers/STM32F1xx_HAL_Driver/Src/stm32f1xx_hal_pcd.c ****   { 
 608:Drivers/STM32F1xx_HAL_Driver/Src/stm32f1xx_hal_pcd.c ****     /* Force low-power mode in the macrocell */
 609:Drivers/STM32F1xx_HAL_Driver/Src/stm32f1xx_hal_pcd.c ****     hpcd->Instance->CNTR |= USB_CNTR_FSUSP;
 610:Drivers/STM32F1xx_HAL_Driver/Src/stm32f1xx_hal_pcd.c ****     
 611:Drivers/STM32F1xx_HAL_Driver/Src/stm32f1xx_hal_pcd.c ****     /* clear of the ISTR bit must be done after setting of CNTR_FSUSP */
 612:Drivers/STM32F1xx_HAL_Driver/Src/stm32f1xx_hal_pcd.c ****     __HAL_PCD_CLEAR_FLAG(hpcd, USB_ISTR_SUSP);  
 613:Drivers/STM32F1xx_HAL_Driver/Src/stm32f1xx_hal_pcd.c **** 
 614:Drivers/STM32F1xx_HAL_Driver/Src/stm32f1xx_hal_pcd.c ****     hpcd->Instance->CNTR |= USB_CNTR_LP_MODE;
 615:Drivers/STM32F1xx_HAL_Driver/Src/stm32f1xx_hal_pcd.c ****     if (__HAL_PCD_GET_FLAG (hpcd, USB_ISTR_WKUP) == 0U)
 616:Drivers/STM32F1xx_HAL_Driver/Src/stm32f1xx_hal_pcd.c ****     {
 617:Drivers/STM32F1xx_HAL_Driver/Src/stm32f1xx_hal_pcd.c ****       HAL_PCD_SuspendCallback(hpcd);
 618:Drivers/STM32F1xx_HAL_Driver/Src/stm32f1xx_hal_pcd.c ****     }
 619:Drivers/STM32F1xx_HAL_Driver/Src/stm32f1xx_hal_pcd.c ****   }
 620:Drivers/STM32F1xx_HAL_Driver/Src/stm32f1xx_hal_pcd.c **** 
 621:Drivers/STM32F1xx_HAL_Driver/Src/stm32f1xx_hal_pcd.c ****   if (__HAL_PCD_GET_FLAG (hpcd, USB_ISTR_SOF))
 622:Drivers/STM32F1xx_HAL_Driver/Src/stm32f1xx_hal_pcd.c ****   {
 623:Drivers/STM32F1xx_HAL_Driver/Src/stm32f1xx_hal_pcd.c ****     __HAL_PCD_CLEAR_FLAG(hpcd, USB_ISTR_SOF); 
 624:Drivers/STM32F1xx_HAL_Driver/Src/stm32f1xx_hal_pcd.c ****     HAL_PCD_SOFCallback(hpcd);
 625:Drivers/STM32F1xx_HAL_Driver/Src/stm32f1xx_hal_pcd.c ****   }
 626:Drivers/STM32F1xx_HAL_Driver/Src/stm32f1xx_hal_pcd.c **** 
 627:Drivers/STM32F1xx_HAL_Driver/Src/stm32f1xx_hal_pcd.c ****   if (__HAL_PCD_GET_FLAG (hpcd, USB_ISTR_ESOF))
 628:Drivers/STM32F1xx_HAL_Driver/Src/stm32f1xx_hal_pcd.c ****   {
 629:Drivers/STM32F1xx_HAL_Driver/Src/stm32f1xx_hal_pcd.c ****     /* clear ESOF flag in ISTR */
 630:Drivers/STM32F1xx_HAL_Driver/Src/stm32f1xx_hal_pcd.c ****     __HAL_PCD_CLEAR_FLAG(hpcd, USB_ISTR_ESOF); 
 631:Drivers/STM32F1xx_HAL_Driver/Src/stm32f1xx_hal_pcd.c ****   }
 632:Drivers/STM32F1xx_HAL_Driver/Src/stm32f1xx_hal_pcd.c **** }
 633:Drivers/STM32F1xx_HAL_Driver/Src/stm32f1xx_hal_pcd.c **** #endif /* USB */
 634:Drivers/STM32F1xx_HAL_Driver/Src/stm32f1xx_hal_pcd.c **** 
 635:Drivers/STM32F1xx_HAL_Driver/Src/stm32f1xx_hal_pcd.c **** /**
 636:Drivers/STM32F1xx_HAL_Driver/Src/stm32f1xx_hal_pcd.c ****   * @brief  Data out stage callbacks
 637:Drivers/STM32F1xx_HAL_Driver/Src/stm32f1xx_hal_pcd.c ****   * @param  hpcd: PCD handle
 638:Drivers/STM32F1xx_HAL_Driver/Src/stm32f1xx_hal_pcd.c ****   * @param  epnum: endpoint number
 639:Drivers/STM32F1xx_HAL_Driver/Src/stm32f1xx_hal_pcd.c ****   * @retval None
 640:Drivers/STM32F1xx_HAL_Driver/Src/stm32f1xx_hal_pcd.c ****   */
 641:Drivers/STM32F1xx_HAL_Driver/Src/stm32f1xx_hal_pcd.c ****  __weak void HAL_PCD_DataOutStageCallback(PCD_HandleTypeDef *hpcd, uint8_t epnum)
 642:Drivers/STM32F1xx_HAL_Driver/Src/stm32f1xx_hal_pcd.c **** {
 404              		.loc 1 642 0
 405              		.cfi_startproc
 406              		@ args = 0, pretend = 0, frame = 0
 407              		@ frame_needed = 0, uses_anonymous_args = 0
ARM GAS  /tmp/cc956sXB.s 			page 20


 408              		@ link register save eliminated.
 409              	.LVL37:
 410 0000 7047     		bx	lr
 411              		.cfi_endproc
 412              	.LFE71:
 414              		.section	.text.HAL_PCD_DataInStageCallback,"ax",%progbits
 415              		.align	1
 416              		.weak	HAL_PCD_DataInStageCallback
 417              		.syntax unified
 418              		.thumb
 419              		.thumb_func
 420              		.fpu softvfp
 422              	HAL_PCD_DataInStageCallback:
 423              	.LFB72:
 643:Drivers/STM32F1xx_HAL_Driver/Src/stm32f1xx_hal_pcd.c ****   /* Prevent unused argument(s) compilation warning */
 644:Drivers/STM32F1xx_HAL_Driver/Src/stm32f1xx_hal_pcd.c ****   UNUSED(hpcd);
 645:Drivers/STM32F1xx_HAL_Driver/Src/stm32f1xx_hal_pcd.c ****   UNUSED(epnum);
 646:Drivers/STM32F1xx_HAL_Driver/Src/stm32f1xx_hal_pcd.c ****   /* NOTE : This function should not be modified, when the callback is needed,
 647:Drivers/STM32F1xx_HAL_Driver/Src/stm32f1xx_hal_pcd.c ****             the HAL_PCD_DataOutStageCallback could be implemented in the user file
 648:Drivers/STM32F1xx_HAL_Driver/Src/stm32f1xx_hal_pcd.c ****    */
 649:Drivers/STM32F1xx_HAL_Driver/Src/stm32f1xx_hal_pcd.c **** }
 650:Drivers/STM32F1xx_HAL_Driver/Src/stm32f1xx_hal_pcd.c **** 
 651:Drivers/STM32F1xx_HAL_Driver/Src/stm32f1xx_hal_pcd.c **** /**
 652:Drivers/STM32F1xx_HAL_Driver/Src/stm32f1xx_hal_pcd.c ****   * @brief  Data IN stage callbacks
 653:Drivers/STM32F1xx_HAL_Driver/Src/stm32f1xx_hal_pcd.c ****   * @param  hpcd: PCD handle
 654:Drivers/STM32F1xx_HAL_Driver/Src/stm32f1xx_hal_pcd.c ****   * @param  epnum: endpoint number
 655:Drivers/STM32F1xx_HAL_Driver/Src/stm32f1xx_hal_pcd.c ****   * @retval None
 656:Drivers/STM32F1xx_HAL_Driver/Src/stm32f1xx_hal_pcd.c ****   */
 657:Drivers/STM32F1xx_HAL_Driver/Src/stm32f1xx_hal_pcd.c ****  __weak void HAL_PCD_DataInStageCallback(PCD_HandleTypeDef *hpcd, uint8_t epnum)
 658:Drivers/STM32F1xx_HAL_Driver/Src/stm32f1xx_hal_pcd.c **** {
 424              		.loc 1 658 0
 425              		.cfi_startproc
 426              		@ args = 0, pretend = 0, frame = 0
 427              		@ frame_needed = 0, uses_anonymous_args = 0
 428              		@ link register save eliminated.
 429              	.LVL38:
 430 0000 7047     		bx	lr
 431              		.cfi_endproc
 432              	.LFE72:
 434              		.section	.text.HAL_PCD_SetupStageCallback,"ax",%progbits
 435              		.align	1
 436              		.weak	HAL_PCD_SetupStageCallback
 437              		.syntax unified
 438              		.thumb
 439              		.thumb_func
 440              		.fpu softvfp
 442              	HAL_PCD_SetupStageCallback:
 443              	.LFB73:
 659:Drivers/STM32F1xx_HAL_Driver/Src/stm32f1xx_hal_pcd.c ****   /* Prevent unused argument(s) compilation warning */
 660:Drivers/STM32F1xx_HAL_Driver/Src/stm32f1xx_hal_pcd.c ****   UNUSED(hpcd);
 661:Drivers/STM32F1xx_HAL_Driver/Src/stm32f1xx_hal_pcd.c ****   UNUSED(epnum);
 662:Drivers/STM32F1xx_HAL_Driver/Src/stm32f1xx_hal_pcd.c ****   /* NOTE : This function should not be modified, when the callback is needed,
 663:Drivers/STM32F1xx_HAL_Driver/Src/stm32f1xx_hal_pcd.c ****             the HAL_PCD_DataInStageCallback could be implemented in the user file
 664:Drivers/STM32F1xx_HAL_Driver/Src/stm32f1xx_hal_pcd.c ****    */
 665:Drivers/STM32F1xx_HAL_Driver/Src/stm32f1xx_hal_pcd.c **** }
 666:Drivers/STM32F1xx_HAL_Driver/Src/stm32f1xx_hal_pcd.c **** /**
 667:Drivers/STM32F1xx_HAL_Driver/Src/stm32f1xx_hal_pcd.c ****   * @brief  Setup stage callback
ARM GAS  /tmp/cc956sXB.s 			page 21


 668:Drivers/STM32F1xx_HAL_Driver/Src/stm32f1xx_hal_pcd.c ****   * @param  hpcd: PCD handle
 669:Drivers/STM32F1xx_HAL_Driver/Src/stm32f1xx_hal_pcd.c ****   * @retval None
 670:Drivers/STM32F1xx_HAL_Driver/Src/stm32f1xx_hal_pcd.c ****   */
 671:Drivers/STM32F1xx_HAL_Driver/Src/stm32f1xx_hal_pcd.c ****  __weak void HAL_PCD_SetupStageCallback(PCD_HandleTypeDef *hpcd)
 672:Drivers/STM32F1xx_HAL_Driver/Src/stm32f1xx_hal_pcd.c **** {
 444              		.loc 1 672 0
 445              		.cfi_startproc
 446              		@ args = 0, pretend = 0, frame = 0
 447              		@ frame_needed = 0, uses_anonymous_args = 0
 448              		@ link register save eliminated.
 449              	.LVL39:
 450 0000 7047     		bx	lr
 451              		.cfi_endproc
 452              	.LFE73:
 454              		.section	.text.HAL_PCD_SOFCallback,"ax",%progbits
 455              		.align	1
 456              		.weak	HAL_PCD_SOFCallback
 457              		.syntax unified
 458              		.thumb
 459              		.thumb_func
 460              		.fpu softvfp
 462              	HAL_PCD_SOFCallback:
 463              	.LFB74:
 673:Drivers/STM32F1xx_HAL_Driver/Src/stm32f1xx_hal_pcd.c ****   /* Prevent unused argument(s) compilation warning */
 674:Drivers/STM32F1xx_HAL_Driver/Src/stm32f1xx_hal_pcd.c ****   UNUSED(hpcd);
 675:Drivers/STM32F1xx_HAL_Driver/Src/stm32f1xx_hal_pcd.c ****   /* NOTE : This function should not be modified, when the callback is needed,
 676:Drivers/STM32F1xx_HAL_Driver/Src/stm32f1xx_hal_pcd.c ****             the HAL_PCD_SetupStageCallback could be implemented in the user file
 677:Drivers/STM32F1xx_HAL_Driver/Src/stm32f1xx_hal_pcd.c ****    */
 678:Drivers/STM32F1xx_HAL_Driver/Src/stm32f1xx_hal_pcd.c **** }
 679:Drivers/STM32F1xx_HAL_Driver/Src/stm32f1xx_hal_pcd.c **** 
 680:Drivers/STM32F1xx_HAL_Driver/Src/stm32f1xx_hal_pcd.c **** /**
 681:Drivers/STM32F1xx_HAL_Driver/Src/stm32f1xx_hal_pcd.c ****   * @brief  USB Start Of Frame callbacks
 682:Drivers/STM32F1xx_HAL_Driver/Src/stm32f1xx_hal_pcd.c ****   * @param  hpcd: PCD handle
 683:Drivers/STM32F1xx_HAL_Driver/Src/stm32f1xx_hal_pcd.c ****   * @retval None
 684:Drivers/STM32F1xx_HAL_Driver/Src/stm32f1xx_hal_pcd.c ****   */
 685:Drivers/STM32F1xx_HAL_Driver/Src/stm32f1xx_hal_pcd.c ****  __weak void HAL_PCD_SOFCallback(PCD_HandleTypeDef *hpcd)
 686:Drivers/STM32F1xx_HAL_Driver/Src/stm32f1xx_hal_pcd.c **** {
 464              		.loc 1 686 0
 465              		.cfi_startproc
 466              		@ args = 0, pretend = 0, frame = 0
 467              		@ frame_needed = 0, uses_anonymous_args = 0
 468              		@ link register save eliminated.
 469              	.LVL40:
 470 0000 7047     		bx	lr
 471              		.cfi_endproc
 472              	.LFE74:
 474              		.section	.text.HAL_PCD_ResetCallback,"ax",%progbits
 475              		.align	1
 476              		.weak	HAL_PCD_ResetCallback
 477              		.syntax unified
 478              		.thumb
 479              		.thumb_func
 480              		.fpu softvfp
 482              	HAL_PCD_ResetCallback:
 483              	.LFB75:
 687:Drivers/STM32F1xx_HAL_Driver/Src/stm32f1xx_hal_pcd.c ****   /* Prevent unused argument(s) compilation warning */
 688:Drivers/STM32F1xx_HAL_Driver/Src/stm32f1xx_hal_pcd.c ****   UNUSED(hpcd);
ARM GAS  /tmp/cc956sXB.s 			page 22


 689:Drivers/STM32F1xx_HAL_Driver/Src/stm32f1xx_hal_pcd.c ****   /* NOTE : This function should not be modified, when the callback is needed,
 690:Drivers/STM32F1xx_HAL_Driver/Src/stm32f1xx_hal_pcd.c ****             the HAL_PCD_SOFCallback could be implemented in the user file
 691:Drivers/STM32F1xx_HAL_Driver/Src/stm32f1xx_hal_pcd.c ****    */
 692:Drivers/STM32F1xx_HAL_Driver/Src/stm32f1xx_hal_pcd.c **** }
 693:Drivers/STM32F1xx_HAL_Driver/Src/stm32f1xx_hal_pcd.c **** 
 694:Drivers/STM32F1xx_HAL_Driver/Src/stm32f1xx_hal_pcd.c **** /**
 695:Drivers/STM32F1xx_HAL_Driver/Src/stm32f1xx_hal_pcd.c ****   * @brief  USB Reset callbacks
 696:Drivers/STM32F1xx_HAL_Driver/Src/stm32f1xx_hal_pcd.c ****   * @param  hpcd: PCD handle
 697:Drivers/STM32F1xx_HAL_Driver/Src/stm32f1xx_hal_pcd.c ****   * @retval None
 698:Drivers/STM32F1xx_HAL_Driver/Src/stm32f1xx_hal_pcd.c ****   */
 699:Drivers/STM32F1xx_HAL_Driver/Src/stm32f1xx_hal_pcd.c ****  __weak void HAL_PCD_ResetCallback(PCD_HandleTypeDef *hpcd)
 700:Drivers/STM32F1xx_HAL_Driver/Src/stm32f1xx_hal_pcd.c **** {
 484              		.loc 1 700 0
 485              		.cfi_startproc
 486              		@ args = 0, pretend = 0, frame = 0
 487              		@ frame_needed = 0, uses_anonymous_args = 0
 488              		@ link register save eliminated.
 489              	.LVL41:
 490 0000 7047     		bx	lr
 491              		.cfi_endproc
 492              	.LFE75:
 494              		.section	.text.HAL_PCD_SuspendCallback,"ax",%progbits
 495              		.align	1
 496              		.weak	HAL_PCD_SuspendCallback
 497              		.syntax unified
 498              		.thumb
 499              		.thumb_func
 500              		.fpu softvfp
 502              	HAL_PCD_SuspendCallback:
 503              	.LFB76:
 701:Drivers/STM32F1xx_HAL_Driver/Src/stm32f1xx_hal_pcd.c ****   /* Prevent unused argument(s) compilation warning */
 702:Drivers/STM32F1xx_HAL_Driver/Src/stm32f1xx_hal_pcd.c ****   UNUSED(hpcd);
 703:Drivers/STM32F1xx_HAL_Driver/Src/stm32f1xx_hal_pcd.c ****   /* NOTE : This function should not be modified, when the callback is needed,
 704:Drivers/STM32F1xx_HAL_Driver/Src/stm32f1xx_hal_pcd.c ****             the HAL_PCD_ResetCallback could be implemented in the user file
 705:Drivers/STM32F1xx_HAL_Driver/Src/stm32f1xx_hal_pcd.c ****    */
 706:Drivers/STM32F1xx_HAL_Driver/Src/stm32f1xx_hal_pcd.c **** }
 707:Drivers/STM32F1xx_HAL_Driver/Src/stm32f1xx_hal_pcd.c **** 
 708:Drivers/STM32F1xx_HAL_Driver/Src/stm32f1xx_hal_pcd.c **** /**
 709:Drivers/STM32F1xx_HAL_Driver/Src/stm32f1xx_hal_pcd.c ****   * @brief  Suspend event callbacks
 710:Drivers/STM32F1xx_HAL_Driver/Src/stm32f1xx_hal_pcd.c ****   * @param  hpcd: PCD handle
 711:Drivers/STM32F1xx_HAL_Driver/Src/stm32f1xx_hal_pcd.c ****   * @retval None
 712:Drivers/STM32F1xx_HAL_Driver/Src/stm32f1xx_hal_pcd.c ****   */
 713:Drivers/STM32F1xx_HAL_Driver/Src/stm32f1xx_hal_pcd.c ****  __weak void HAL_PCD_SuspendCallback(PCD_HandleTypeDef *hpcd)
 714:Drivers/STM32F1xx_HAL_Driver/Src/stm32f1xx_hal_pcd.c **** {
 504              		.loc 1 714 0
 505              		.cfi_startproc
 506              		@ args = 0, pretend = 0, frame = 0
 507              		@ frame_needed = 0, uses_anonymous_args = 0
 508              		@ link register save eliminated.
 509              	.LVL42:
 510 0000 7047     		bx	lr
 511              		.cfi_endproc
 512              	.LFE76:
 514              		.section	.text.HAL_PCD_ResumeCallback,"ax",%progbits
 515              		.align	1
 516              		.weak	HAL_PCD_ResumeCallback
 517              		.syntax unified
ARM GAS  /tmp/cc956sXB.s 			page 23


 518              		.thumb
 519              		.thumb_func
 520              		.fpu softvfp
 522              	HAL_PCD_ResumeCallback:
 523              	.LFB77:
 715:Drivers/STM32F1xx_HAL_Driver/Src/stm32f1xx_hal_pcd.c ****   /* Prevent unused argument(s) compilation warning */
 716:Drivers/STM32F1xx_HAL_Driver/Src/stm32f1xx_hal_pcd.c ****   UNUSED(hpcd);
 717:Drivers/STM32F1xx_HAL_Driver/Src/stm32f1xx_hal_pcd.c ****   /* NOTE : This function should not be modified, when the callback is needed,
 718:Drivers/STM32F1xx_HAL_Driver/Src/stm32f1xx_hal_pcd.c ****             the HAL_PCD_SuspendCallback could be implemented in the user file
 719:Drivers/STM32F1xx_HAL_Driver/Src/stm32f1xx_hal_pcd.c ****    */
 720:Drivers/STM32F1xx_HAL_Driver/Src/stm32f1xx_hal_pcd.c **** }
 721:Drivers/STM32F1xx_HAL_Driver/Src/stm32f1xx_hal_pcd.c **** 
 722:Drivers/STM32F1xx_HAL_Driver/Src/stm32f1xx_hal_pcd.c **** /**
 723:Drivers/STM32F1xx_HAL_Driver/Src/stm32f1xx_hal_pcd.c ****   * @brief  Resume event callbacks
 724:Drivers/STM32F1xx_HAL_Driver/Src/stm32f1xx_hal_pcd.c ****   * @param  hpcd: PCD handle
 725:Drivers/STM32F1xx_HAL_Driver/Src/stm32f1xx_hal_pcd.c ****   * @retval None
 726:Drivers/STM32F1xx_HAL_Driver/Src/stm32f1xx_hal_pcd.c ****   */
 727:Drivers/STM32F1xx_HAL_Driver/Src/stm32f1xx_hal_pcd.c ****  __weak void HAL_PCD_ResumeCallback(PCD_HandleTypeDef *hpcd)
 728:Drivers/STM32F1xx_HAL_Driver/Src/stm32f1xx_hal_pcd.c **** {
 524              		.loc 1 728 0
 525              		.cfi_startproc
 526              		@ args = 0, pretend = 0, frame = 0
 527              		@ frame_needed = 0, uses_anonymous_args = 0
 528              		@ link register save eliminated.
 529              	.LVL43:
 530 0000 7047     		bx	lr
 531              		.cfi_endproc
 532              	.LFE77:
 534              		.section	.text.HAL_PCD_ISOOUTIncompleteCallback,"ax",%progbits
 535              		.align	1
 536              		.weak	HAL_PCD_ISOOUTIncompleteCallback
 537              		.syntax unified
 538              		.thumb
 539              		.thumb_func
 540              		.fpu softvfp
 542              	HAL_PCD_ISOOUTIncompleteCallback:
 543              	.LFB78:
 729:Drivers/STM32F1xx_HAL_Driver/Src/stm32f1xx_hal_pcd.c ****   /* Prevent unused argument(s) compilation warning */
 730:Drivers/STM32F1xx_HAL_Driver/Src/stm32f1xx_hal_pcd.c ****   UNUSED(hpcd);
 731:Drivers/STM32F1xx_HAL_Driver/Src/stm32f1xx_hal_pcd.c ****   /* NOTE : This function should not be modified, when the callback is needed,
 732:Drivers/STM32F1xx_HAL_Driver/Src/stm32f1xx_hal_pcd.c ****             the HAL_PCD_ResumeCallback could be implemented in the user file
 733:Drivers/STM32F1xx_HAL_Driver/Src/stm32f1xx_hal_pcd.c ****    */
 734:Drivers/STM32F1xx_HAL_Driver/Src/stm32f1xx_hal_pcd.c **** }
 735:Drivers/STM32F1xx_HAL_Driver/Src/stm32f1xx_hal_pcd.c **** 
 736:Drivers/STM32F1xx_HAL_Driver/Src/stm32f1xx_hal_pcd.c **** /**
 737:Drivers/STM32F1xx_HAL_Driver/Src/stm32f1xx_hal_pcd.c ****   * @brief  Incomplete ISO OUT callbacks
 738:Drivers/STM32F1xx_HAL_Driver/Src/stm32f1xx_hal_pcd.c ****   * @param  hpcd: PCD handle
 739:Drivers/STM32F1xx_HAL_Driver/Src/stm32f1xx_hal_pcd.c ****   * @param  epnum: endpoint number
 740:Drivers/STM32F1xx_HAL_Driver/Src/stm32f1xx_hal_pcd.c ****   * @retval None
 741:Drivers/STM32F1xx_HAL_Driver/Src/stm32f1xx_hal_pcd.c ****   */
 742:Drivers/STM32F1xx_HAL_Driver/Src/stm32f1xx_hal_pcd.c ****  __weak void HAL_PCD_ISOOUTIncompleteCallback(PCD_HandleTypeDef *hpcd, uint8_t epnum)
 743:Drivers/STM32F1xx_HAL_Driver/Src/stm32f1xx_hal_pcd.c **** {
 544              		.loc 1 743 0
 545              		.cfi_startproc
 546              		@ args = 0, pretend = 0, frame = 0
 547              		@ frame_needed = 0, uses_anonymous_args = 0
 548              		@ link register save eliminated.
ARM GAS  /tmp/cc956sXB.s 			page 24


 549              	.LVL44:
 550 0000 7047     		bx	lr
 551              		.cfi_endproc
 552              	.LFE78:
 554              		.section	.text.HAL_PCD_ISOINIncompleteCallback,"ax",%progbits
 555              		.align	1
 556              		.weak	HAL_PCD_ISOINIncompleteCallback
 557              		.syntax unified
 558              		.thumb
 559              		.thumb_func
 560              		.fpu softvfp
 562              	HAL_PCD_ISOINIncompleteCallback:
 563              	.LFB79:
 744:Drivers/STM32F1xx_HAL_Driver/Src/stm32f1xx_hal_pcd.c ****   /* Prevent unused argument(s) compilation warning */
 745:Drivers/STM32F1xx_HAL_Driver/Src/stm32f1xx_hal_pcd.c ****   UNUSED(hpcd);
 746:Drivers/STM32F1xx_HAL_Driver/Src/stm32f1xx_hal_pcd.c ****   UNUSED(epnum);
 747:Drivers/STM32F1xx_HAL_Driver/Src/stm32f1xx_hal_pcd.c ****   /* NOTE : This function should not be modified, when the callback is needed,
 748:Drivers/STM32F1xx_HAL_Driver/Src/stm32f1xx_hal_pcd.c ****             the HAL_PCD_ISOOUTIncompleteCallback could be implemented in the user file
 749:Drivers/STM32F1xx_HAL_Driver/Src/stm32f1xx_hal_pcd.c ****    */
 750:Drivers/STM32F1xx_HAL_Driver/Src/stm32f1xx_hal_pcd.c **** }
 751:Drivers/STM32F1xx_HAL_Driver/Src/stm32f1xx_hal_pcd.c **** 
 752:Drivers/STM32F1xx_HAL_Driver/Src/stm32f1xx_hal_pcd.c **** /**
 753:Drivers/STM32F1xx_HAL_Driver/Src/stm32f1xx_hal_pcd.c ****   * @brief  Incomplete ISO IN  callbacks
 754:Drivers/STM32F1xx_HAL_Driver/Src/stm32f1xx_hal_pcd.c ****   * @param  hpcd: PCD handle
 755:Drivers/STM32F1xx_HAL_Driver/Src/stm32f1xx_hal_pcd.c ****   * @param  epnum: endpoint number
 756:Drivers/STM32F1xx_HAL_Driver/Src/stm32f1xx_hal_pcd.c ****   * @retval None
 757:Drivers/STM32F1xx_HAL_Driver/Src/stm32f1xx_hal_pcd.c ****   */
 758:Drivers/STM32F1xx_HAL_Driver/Src/stm32f1xx_hal_pcd.c ****  __weak void HAL_PCD_ISOINIncompleteCallback(PCD_HandleTypeDef *hpcd, uint8_t epnum)
 759:Drivers/STM32F1xx_HAL_Driver/Src/stm32f1xx_hal_pcd.c **** {
 564              		.loc 1 759 0
 565              		.cfi_startproc
 566              		@ args = 0, pretend = 0, frame = 0
 567              		@ frame_needed = 0, uses_anonymous_args = 0
 568              		@ link register save eliminated.
 569              	.LVL45:
 570 0000 7047     		bx	lr
 571              		.cfi_endproc
 572              	.LFE79:
 574              		.section	.text.HAL_PCD_ConnectCallback,"ax",%progbits
 575              		.align	1
 576              		.weak	HAL_PCD_ConnectCallback
 577              		.syntax unified
 578              		.thumb
 579              		.thumb_func
 580              		.fpu softvfp
 582              	HAL_PCD_ConnectCallback:
 583              	.LFB80:
 760:Drivers/STM32F1xx_HAL_Driver/Src/stm32f1xx_hal_pcd.c ****   /* Prevent unused argument(s) compilation warning */
 761:Drivers/STM32F1xx_HAL_Driver/Src/stm32f1xx_hal_pcd.c ****   UNUSED(hpcd);
 762:Drivers/STM32F1xx_HAL_Driver/Src/stm32f1xx_hal_pcd.c ****   UNUSED(epnum);
 763:Drivers/STM32F1xx_HAL_Driver/Src/stm32f1xx_hal_pcd.c ****   /* NOTE : This function should not be modified, when the callback is needed,
 764:Drivers/STM32F1xx_HAL_Driver/Src/stm32f1xx_hal_pcd.c ****             the HAL_PCD_ISOINIncompleteCallback could be implemented in the user file
 765:Drivers/STM32F1xx_HAL_Driver/Src/stm32f1xx_hal_pcd.c ****    */
 766:Drivers/STM32F1xx_HAL_Driver/Src/stm32f1xx_hal_pcd.c **** }
 767:Drivers/STM32F1xx_HAL_Driver/Src/stm32f1xx_hal_pcd.c **** 
 768:Drivers/STM32F1xx_HAL_Driver/Src/stm32f1xx_hal_pcd.c **** /**
 769:Drivers/STM32F1xx_HAL_Driver/Src/stm32f1xx_hal_pcd.c ****   * @brief  Connection event callbacks
ARM GAS  /tmp/cc956sXB.s 			page 25


 770:Drivers/STM32F1xx_HAL_Driver/Src/stm32f1xx_hal_pcd.c ****   * @param  hpcd: PCD handle
 771:Drivers/STM32F1xx_HAL_Driver/Src/stm32f1xx_hal_pcd.c ****   * @retval None
 772:Drivers/STM32F1xx_HAL_Driver/Src/stm32f1xx_hal_pcd.c ****   */
 773:Drivers/STM32F1xx_HAL_Driver/Src/stm32f1xx_hal_pcd.c ****  __weak void HAL_PCD_ConnectCallback(PCD_HandleTypeDef *hpcd)
 774:Drivers/STM32F1xx_HAL_Driver/Src/stm32f1xx_hal_pcd.c **** {
 584              		.loc 1 774 0
 585              		.cfi_startproc
 586              		@ args = 0, pretend = 0, frame = 0
 587              		@ frame_needed = 0, uses_anonymous_args = 0
 588              		@ link register save eliminated.
 589              	.LVL46:
 590 0000 7047     		bx	lr
 591              		.cfi_endproc
 592              	.LFE80:
 594              		.section	.text.HAL_PCD_DisconnectCallback,"ax",%progbits
 595              		.align	1
 596              		.weak	HAL_PCD_DisconnectCallback
 597              		.syntax unified
 598              		.thumb
 599              		.thumb_func
 600              		.fpu softvfp
 602              	HAL_PCD_DisconnectCallback:
 603              	.LFB81:
 775:Drivers/STM32F1xx_HAL_Driver/Src/stm32f1xx_hal_pcd.c ****   /* Prevent unused argument(s) compilation warning */
 776:Drivers/STM32F1xx_HAL_Driver/Src/stm32f1xx_hal_pcd.c ****   UNUSED(hpcd);
 777:Drivers/STM32F1xx_HAL_Driver/Src/stm32f1xx_hal_pcd.c ****   /* NOTE : This function should not be modified, when the callback is needed,
 778:Drivers/STM32F1xx_HAL_Driver/Src/stm32f1xx_hal_pcd.c ****             the HAL_PCD_ConnectCallback could be implemented in the user file
 779:Drivers/STM32F1xx_HAL_Driver/Src/stm32f1xx_hal_pcd.c ****    */
 780:Drivers/STM32F1xx_HAL_Driver/Src/stm32f1xx_hal_pcd.c **** }
 781:Drivers/STM32F1xx_HAL_Driver/Src/stm32f1xx_hal_pcd.c **** 
 782:Drivers/STM32F1xx_HAL_Driver/Src/stm32f1xx_hal_pcd.c **** /**
 783:Drivers/STM32F1xx_HAL_Driver/Src/stm32f1xx_hal_pcd.c ****   * @brief  Disconnection event callbacks
 784:Drivers/STM32F1xx_HAL_Driver/Src/stm32f1xx_hal_pcd.c ****   * @param  hpcd: PCD handle
 785:Drivers/STM32F1xx_HAL_Driver/Src/stm32f1xx_hal_pcd.c ****   * @retval None
 786:Drivers/STM32F1xx_HAL_Driver/Src/stm32f1xx_hal_pcd.c ****   */
 787:Drivers/STM32F1xx_HAL_Driver/Src/stm32f1xx_hal_pcd.c ****  __weak void HAL_PCD_DisconnectCallback(PCD_HandleTypeDef *hpcd)
 788:Drivers/STM32F1xx_HAL_Driver/Src/stm32f1xx_hal_pcd.c **** {
 604              		.loc 1 788 0
 605              		.cfi_startproc
 606              		@ args = 0, pretend = 0, frame = 0
 607              		@ frame_needed = 0, uses_anonymous_args = 0
 608              		@ link register save eliminated.
 609              	.LVL47:
 610 0000 7047     		bx	lr
 611              		.cfi_endproc
 612              	.LFE81:
 614              		.section	.text.HAL_PCD_DevConnect,"ax",%progbits
 615              		.align	1
 616              		.global	HAL_PCD_DevConnect
 617              		.syntax unified
 618              		.thumb
 619              		.thumb_func
 620              		.fpu softvfp
 622              	HAL_PCD_DevConnect:
 623              	.LFB82:
 789:Drivers/STM32F1xx_HAL_Driver/Src/stm32f1xx_hal_pcd.c ****   /* Prevent unused argument(s) compilation warning */
 790:Drivers/STM32F1xx_HAL_Driver/Src/stm32f1xx_hal_pcd.c ****   UNUSED(hpcd);
ARM GAS  /tmp/cc956sXB.s 			page 26


 791:Drivers/STM32F1xx_HAL_Driver/Src/stm32f1xx_hal_pcd.c ****   /* NOTE : This function should not be modified, when the callback is needed,
 792:Drivers/STM32F1xx_HAL_Driver/Src/stm32f1xx_hal_pcd.c ****             the HAL_PCD_DisconnectCallback could be implemented in the user file
 793:Drivers/STM32F1xx_HAL_Driver/Src/stm32f1xx_hal_pcd.c ****    */
 794:Drivers/STM32F1xx_HAL_Driver/Src/stm32f1xx_hal_pcd.c **** }
 795:Drivers/STM32F1xx_HAL_Driver/Src/stm32f1xx_hal_pcd.c **** 
 796:Drivers/STM32F1xx_HAL_Driver/Src/stm32f1xx_hal_pcd.c **** /**
 797:Drivers/STM32F1xx_HAL_Driver/Src/stm32f1xx_hal_pcd.c ****   * @}
 798:Drivers/STM32F1xx_HAL_Driver/Src/stm32f1xx_hal_pcd.c ****   */
 799:Drivers/STM32F1xx_HAL_Driver/Src/stm32f1xx_hal_pcd.c **** 
 800:Drivers/STM32F1xx_HAL_Driver/Src/stm32f1xx_hal_pcd.c **** /** @defgroup PCD_Exported_Functions_Group3 Peripheral Control functions
 801:Drivers/STM32F1xx_HAL_Driver/Src/stm32f1xx_hal_pcd.c ****  *  @brief   management functions
 802:Drivers/STM32F1xx_HAL_Driver/Src/stm32f1xx_hal_pcd.c ****  *
 803:Drivers/STM32F1xx_HAL_Driver/Src/stm32f1xx_hal_pcd.c **** @verbatim
 804:Drivers/STM32F1xx_HAL_Driver/Src/stm32f1xx_hal_pcd.c ****  ===============================================================================
 805:Drivers/STM32F1xx_HAL_Driver/Src/stm32f1xx_hal_pcd.c ****                       ##### Peripheral Control functions #####
 806:Drivers/STM32F1xx_HAL_Driver/Src/stm32f1xx_hal_pcd.c ****  ===============================================================================  
 807:Drivers/STM32F1xx_HAL_Driver/Src/stm32f1xx_hal_pcd.c ****     [..]
 808:Drivers/STM32F1xx_HAL_Driver/Src/stm32f1xx_hal_pcd.c ****     This subsection provides a set of functions allowing to control the PCD data 
 809:Drivers/STM32F1xx_HAL_Driver/Src/stm32f1xx_hal_pcd.c ****     transfers.
 810:Drivers/STM32F1xx_HAL_Driver/Src/stm32f1xx_hal_pcd.c **** 
 811:Drivers/STM32F1xx_HAL_Driver/Src/stm32f1xx_hal_pcd.c **** @endverbatim
 812:Drivers/STM32F1xx_HAL_Driver/Src/stm32f1xx_hal_pcd.c ****   * @{
 813:Drivers/STM32F1xx_HAL_Driver/Src/stm32f1xx_hal_pcd.c ****   */
 814:Drivers/STM32F1xx_HAL_Driver/Src/stm32f1xx_hal_pcd.c **** 
 815:Drivers/STM32F1xx_HAL_Driver/Src/stm32f1xx_hal_pcd.c **** /**
 816:Drivers/STM32F1xx_HAL_Driver/Src/stm32f1xx_hal_pcd.c ****   * @brief  Connect the USB device
 817:Drivers/STM32F1xx_HAL_Driver/Src/stm32f1xx_hal_pcd.c ****   * @param  hpcd: PCD handle
 818:Drivers/STM32F1xx_HAL_Driver/Src/stm32f1xx_hal_pcd.c ****   * @retval HAL status
 819:Drivers/STM32F1xx_HAL_Driver/Src/stm32f1xx_hal_pcd.c ****   */
 820:Drivers/STM32F1xx_HAL_Driver/Src/stm32f1xx_hal_pcd.c **** HAL_StatusTypeDef HAL_PCD_DevConnect(PCD_HandleTypeDef *hpcd)
 821:Drivers/STM32F1xx_HAL_Driver/Src/stm32f1xx_hal_pcd.c **** {
 624              		.loc 1 821 0
 625              		.cfi_startproc
 626              		@ args = 0, pretend = 0, frame = 0
 627              		@ frame_needed = 0, uses_anonymous_args = 0
 628              	.LVL48:
 822:Drivers/STM32F1xx_HAL_Driver/Src/stm32f1xx_hal_pcd.c ****   __HAL_LOCK(hpcd);
 629              		.loc 1 822 0
 630 0000 90F82834 		ldrb	r3, [r0, #1064]	@ zero_extendqisi2
 631 0004 012B     		cmp	r3, #1
 632 0006 01D1     		bne	.L57
 633 0008 0220     		movs	r0, #2
 634              	.LVL49:
 635 000a 7047     		bx	lr
 636              	.LVL50:
 637              	.L57:
 821:Drivers/STM32F1xx_HAL_Driver/Src/stm32f1xx_hal_pcd.c ****   __HAL_LOCK(hpcd);
 638              		.loc 1 821 0 discriminator 2
 639 000c 10B5     		push	{r4, lr}
 640              	.LCFI8:
 641              		.cfi_def_cfa_offset 8
 642              		.cfi_offset 4, -8
 643              		.cfi_offset 14, -4
 644 000e 0446     		mov	r4, r0
 645              		.loc 1 822 0 discriminator 2
 646 0010 0121     		movs	r1, #1
 647 0012 80F82814 		strb	r1, [r0, #1064]
ARM GAS  /tmp/cc956sXB.s 			page 27


 823:Drivers/STM32F1xx_HAL_Driver/Src/stm32f1xx_hal_pcd.c ****   HAL_PCDEx_SetConnectionState (hpcd, 1);
 648              		.loc 1 823 0 discriminator 2
 649 0016 FFF7FEFF 		bl	HAL_PCDEx_SetConnectionState
 650              	.LVL51:
 824:Drivers/STM32F1xx_HAL_Driver/Src/stm32f1xx_hal_pcd.c ****   USB_DevConnect(hpcd->Instance);
 651              		.loc 1 824 0 discriminator 2
 652 001a 2068     		ldr	r0, [r4]
 653 001c FFF7FEFF 		bl	USB_DevConnect
 654              	.LVL52:
 825:Drivers/STM32F1xx_HAL_Driver/Src/stm32f1xx_hal_pcd.c ****   __HAL_UNLOCK(hpcd);
 655              		.loc 1 825 0 discriminator 2
 656 0020 0020     		movs	r0, #0
 657 0022 84F82804 		strb	r0, [r4, #1064]
 826:Drivers/STM32F1xx_HAL_Driver/Src/stm32f1xx_hal_pcd.c ****   return HAL_OK;
 658              		.loc 1 826 0 discriminator 2
 659 0026 10BD     		pop	{r4, pc}
 660              		.cfi_endproc
 661              	.LFE82:
 663              		.section	.text.HAL_PCD_DevDisconnect,"ax",%progbits
 664              		.align	1
 665              		.global	HAL_PCD_DevDisconnect
 666              		.syntax unified
 667              		.thumb
 668              		.thumb_func
 669              		.fpu softvfp
 671              	HAL_PCD_DevDisconnect:
 672              	.LFB83:
 827:Drivers/STM32F1xx_HAL_Driver/Src/stm32f1xx_hal_pcd.c **** }
 828:Drivers/STM32F1xx_HAL_Driver/Src/stm32f1xx_hal_pcd.c **** 
 829:Drivers/STM32F1xx_HAL_Driver/Src/stm32f1xx_hal_pcd.c **** /**
 830:Drivers/STM32F1xx_HAL_Driver/Src/stm32f1xx_hal_pcd.c ****   * @brief  Disconnect the USB device
 831:Drivers/STM32F1xx_HAL_Driver/Src/stm32f1xx_hal_pcd.c ****   * @param  hpcd: PCD handle
 832:Drivers/STM32F1xx_HAL_Driver/Src/stm32f1xx_hal_pcd.c ****   * @retval HAL status
 833:Drivers/STM32F1xx_HAL_Driver/Src/stm32f1xx_hal_pcd.c ****   */
 834:Drivers/STM32F1xx_HAL_Driver/Src/stm32f1xx_hal_pcd.c **** HAL_StatusTypeDef HAL_PCD_DevDisconnect(PCD_HandleTypeDef *hpcd)
 835:Drivers/STM32F1xx_HAL_Driver/Src/stm32f1xx_hal_pcd.c **** {
 673              		.loc 1 835 0
 674              		.cfi_startproc
 675              		@ args = 0, pretend = 0, frame = 0
 676              		@ frame_needed = 0, uses_anonymous_args = 0
 677              	.LVL53:
 836:Drivers/STM32F1xx_HAL_Driver/Src/stm32f1xx_hal_pcd.c ****   __HAL_LOCK(hpcd);
 678              		.loc 1 836 0
 679 0000 90F82834 		ldrb	r3, [r0, #1064]	@ zero_extendqisi2
 680 0004 012B     		cmp	r3, #1
 681 0006 01D1     		bne	.L65
 682 0008 0220     		movs	r0, #2
 683              	.LVL54:
 684 000a 7047     		bx	lr
 685              	.LVL55:
 686              	.L65:
 835:Drivers/STM32F1xx_HAL_Driver/Src/stm32f1xx_hal_pcd.c ****   __HAL_LOCK(hpcd);
 687              		.loc 1 835 0 discriminator 2
 688 000c 10B5     		push	{r4, lr}
 689              	.LCFI9:
 690              		.cfi_def_cfa_offset 8
 691              		.cfi_offset 4, -8
ARM GAS  /tmp/cc956sXB.s 			page 28


 692              		.cfi_offset 14, -4
 693 000e 0446     		mov	r4, r0
 694              		.loc 1 836 0 discriminator 2
 695 0010 0123     		movs	r3, #1
 696 0012 80F82834 		strb	r3, [r0, #1064]
 837:Drivers/STM32F1xx_HAL_Driver/Src/stm32f1xx_hal_pcd.c ****   HAL_PCDEx_SetConnectionState (hpcd, 0U);
 697              		.loc 1 837 0 discriminator 2
 698 0016 0021     		movs	r1, #0
 699 0018 FFF7FEFF 		bl	HAL_PCDEx_SetConnectionState
 700              	.LVL56:
 838:Drivers/STM32F1xx_HAL_Driver/Src/stm32f1xx_hal_pcd.c ****   USB_DevDisconnect(hpcd->Instance);
 701              		.loc 1 838 0 discriminator 2
 702 001c 2068     		ldr	r0, [r4]
 703 001e FFF7FEFF 		bl	USB_DevDisconnect
 704              	.LVL57:
 839:Drivers/STM32F1xx_HAL_Driver/Src/stm32f1xx_hal_pcd.c ****   __HAL_UNLOCK(hpcd);
 705              		.loc 1 839 0 discriminator 2
 706 0022 0020     		movs	r0, #0
 707 0024 84F82804 		strb	r0, [r4, #1064]
 840:Drivers/STM32F1xx_HAL_Driver/Src/stm32f1xx_hal_pcd.c ****   return HAL_OK;
 708              		.loc 1 840 0 discriminator 2
 709 0028 10BD     		pop	{r4, pc}
 710              		.cfi_endproc
 711              	.LFE83:
 713              		.section	.text.HAL_PCD_SetAddress,"ax",%progbits
 714              		.align	1
 715              		.global	HAL_PCD_SetAddress
 716              		.syntax unified
 717              		.thumb
 718              		.thumb_func
 719              		.fpu softvfp
 721              	HAL_PCD_SetAddress:
 722              	.LFB84:
 841:Drivers/STM32F1xx_HAL_Driver/Src/stm32f1xx_hal_pcd.c **** }
 842:Drivers/STM32F1xx_HAL_Driver/Src/stm32f1xx_hal_pcd.c **** 
 843:Drivers/STM32F1xx_HAL_Driver/Src/stm32f1xx_hal_pcd.c **** /**
 844:Drivers/STM32F1xx_HAL_Driver/Src/stm32f1xx_hal_pcd.c ****   * @brief  Set the USB Device address
 845:Drivers/STM32F1xx_HAL_Driver/Src/stm32f1xx_hal_pcd.c ****   * @param  hpcd: PCD handle
 846:Drivers/STM32F1xx_HAL_Driver/Src/stm32f1xx_hal_pcd.c ****   * @param  address: new device address
 847:Drivers/STM32F1xx_HAL_Driver/Src/stm32f1xx_hal_pcd.c ****   * @retval HAL status
 848:Drivers/STM32F1xx_HAL_Driver/Src/stm32f1xx_hal_pcd.c ****   */
 849:Drivers/STM32F1xx_HAL_Driver/Src/stm32f1xx_hal_pcd.c **** HAL_StatusTypeDef HAL_PCD_SetAddress(PCD_HandleTypeDef *hpcd, uint8_t address)
 850:Drivers/STM32F1xx_HAL_Driver/Src/stm32f1xx_hal_pcd.c **** {
 723              		.loc 1 850 0
 724              		.cfi_startproc
 725              		@ args = 0, pretend = 0, frame = 0
 726              		@ frame_needed = 0, uses_anonymous_args = 0
 727              	.LVL58:
 851:Drivers/STM32F1xx_HAL_Driver/Src/stm32f1xx_hal_pcd.c ****   __HAL_LOCK(hpcd);
 728              		.loc 1 851 0
 729 0000 90F82834 		ldrb	r3, [r0, #1064]	@ zero_extendqisi2
 730 0004 012B     		cmp	r3, #1
 731 0006 01D1     		bne	.L73
 732 0008 0220     		movs	r0, #2
 733              	.LVL59:
 734 000a 7047     		bx	lr
 735              	.LVL60:
ARM GAS  /tmp/cc956sXB.s 			page 29


 736              	.L73:
 850:Drivers/STM32F1xx_HAL_Driver/Src/stm32f1xx_hal_pcd.c ****   __HAL_LOCK(hpcd);
 737              		.loc 1 850 0 discriminator 2
 738 000c 10B5     		push	{r4, lr}
 739              	.LCFI10:
 740              		.cfi_def_cfa_offset 8
 741              		.cfi_offset 4, -8
 742              		.cfi_offset 14, -4
 743 000e 0446     		mov	r4, r0
 744              		.loc 1 851 0 discriminator 2
 745 0010 0123     		movs	r3, #1
 746 0012 80F82834 		strb	r3, [r0, #1064]
 852:Drivers/STM32F1xx_HAL_Driver/Src/stm32f1xx_hal_pcd.c ****   hpcd->USB_Address = address;
 747              		.loc 1 852 0 discriminator 2
 748 0016 80F82410 		strb	r1, [r0, #36]
 853:Drivers/STM32F1xx_HAL_Driver/Src/stm32f1xx_hal_pcd.c ****   USB_SetDevAddress(hpcd->Instance, address);
 749              		.loc 1 853 0 discriminator 2
 750 001a 0068     		ldr	r0, [r0]
 751              	.LVL61:
 752 001c FFF7FEFF 		bl	USB_SetDevAddress
 753              	.LVL62:
 854:Drivers/STM32F1xx_HAL_Driver/Src/stm32f1xx_hal_pcd.c ****   __HAL_UNLOCK(hpcd);
 754              		.loc 1 854 0 discriminator 2
 755 0020 0020     		movs	r0, #0
 756 0022 84F82804 		strb	r0, [r4, #1064]
 855:Drivers/STM32F1xx_HAL_Driver/Src/stm32f1xx_hal_pcd.c ****   return HAL_OK;
 757              		.loc 1 855 0 discriminator 2
 758 0026 10BD     		pop	{r4, pc}
 759              		.cfi_endproc
 760              	.LFE84:
 762              		.section	.text.HAL_PCD_EP_Open,"ax",%progbits
 763              		.align	1
 764              		.global	HAL_PCD_EP_Open
 765              		.syntax unified
 766              		.thumb
 767              		.thumb_func
 768              		.fpu softvfp
 770              	HAL_PCD_EP_Open:
 771              	.LFB85:
 856:Drivers/STM32F1xx_HAL_Driver/Src/stm32f1xx_hal_pcd.c **** }
 857:Drivers/STM32F1xx_HAL_Driver/Src/stm32f1xx_hal_pcd.c **** /**
 858:Drivers/STM32F1xx_HAL_Driver/Src/stm32f1xx_hal_pcd.c ****   * @brief  Open and configure an endpoint
 859:Drivers/STM32F1xx_HAL_Driver/Src/stm32f1xx_hal_pcd.c ****   * @param  hpcd: PCD handle
 860:Drivers/STM32F1xx_HAL_Driver/Src/stm32f1xx_hal_pcd.c ****   * @param  ep_addr: endpoint address
 861:Drivers/STM32F1xx_HAL_Driver/Src/stm32f1xx_hal_pcd.c ****   * @param  ep_mps: endpoint max packet size
 862:Drivers/STM32F1xx_HAL_Driver/Src/stm32f1xx_hal_pcd.c ****   * @param  ep_type: endpoint type   
 863:Drivers/STM32F1xx_HAL_Driver/Src/stm32f1xx_hal_pcd.c ****   * @retval HAL status
 864:Drivers/STM32F1xx_HAL_Driver/Src/stm32f1xx_hal_pcd.c ****   */
 865:Drivers/STM32F1xx_HAL_Driver/Src/stm32f1xx_hal_pcd.c **** HAL_StatusTypeDef HAL_PCD_EP_Open(PCD_HandleTypeDef *hpcd, uint8_t ep_addr, uint16_t ep_mps, uint8_
 866:Drivers/STM32F1xx_HAL_Driver/Src/stm32f1xx_hal_pcd.c **** {
 772              		.loc 1 866 0
 773              		.cfi_startproc
 774              		@ args = 0, pretend = 0, frame = 0
 775              		@ frame_needed = 0, uses_anonymous_args = 0
 776              	.LVL63:
 777 0000 38B5     		push	{r3, r4, r5, lr}
 778              	.LCFI11:
ARM GAS  /tmp/cc956sXB.s 			page 30


 779              		.cfi_def_cfa_offset 16
 780              		.cfi_offset 3, -16
 781              		.cfi_offset 4, -12
 782              		.cfi_offset 5, -8
 783              		.cfi_offset 14, -4
 784              	.LVL64:
 867:Drivers/STM32F1xx_HAL_Driver/Src/stm32f1xx_hal_pcd.c ****   HAL_StatusTypeDef  ret = HAL_OK;
 868:Drivers/STM32F1xx_HAL_Driver/Src/stm32f1xx_hal_pcd.c ****   PCD_EPTypeDef *ep = NULL;
 869:Drivers/STM32F1xx_HAL_Driver/Src/stm32f1xx_hal_pcd.c ****   
 870:Drivers/STM32F1xx_HAL_Driver/Src/stm32f1xx_hal_pcd.c ****   if ((ep_addr & 0x80U) == 0x80U)
 785              		.loc 1 870 0
 786 0002 4DB2     		sxtb	r5, r1
 787 0004 002D     		cmp	r5, #0
 788 0006 12DB     		blt	.L80
 871:Drivers/STM32F1xx_HAL_Driver/Src/stm32f1xx_hal_pcd.c ****   {
 872:Drivers/STM32F1xx_HAL_Driver/Src/stm32f1xx_hal_pcd.c ****     ep = &hpcd->IN_ep[ep_addr & 0x7FU];
 873:Drivers/STM32F1xx_HAL_Driver/Src/stm32f1xx_hal_pcd.c ****   }
 874:Drivers/STM32F1xx_HAL_Driver/Src/stm32f1xx_hal_pcd.c ****   else
 875:Drivers/STM32F1xx_HAL_Driver/Src/stm32f1xx_hal_pcd.c ****   {
 876:Drivers/STM32F1xx_HAL_Driver/Src/stm32f1xx_hal_pcd.c ****     ep = &hpcd->OUT_ep[ep_addr & 0x7FU];
 789              		.loc 1 876 0
 790 0008 01F07F04 		and	r4, r1, #127
 791 000c 6401     		lsls	r4, r4, #5
 792 000e 04F50A74 		add	r4, r4, #552
 793 0012 0444     		add	r4, r4, r0
 794              	.LVL65:
 795              	.L76:
 877:Drivers/STM32F1xx_HAL_Driver/Src/stm32f1xx_hal_pcd.c ****   }
 878:Drivers/STM32F1xx_HAL_Driver/Src/stm32f1xx_hal_pcd.c ****   ep->num   = ep_addr & 0x7FU;
 796              		.loc 1 878 0
 797 0014 01F07F01 		and	r1, r1, #127
 798              	.LVL66:
 799 0018 2170     		strb	r1, [r4]
 879:Drivers/STM32F1xx_HAL_Driver/Src/stm32f1xx_hal_pcd.c ****   
 880:Drivers/STM32F1xx_HAL_Driver/Src/stm32f1xx_hal_pcd.c ****   ep->is_in = (0x80U & ep_addr) != 0U;
 800              		.loc 1 880 0
 801 001a ED0F     		lsrs	r5, r5, #31
 802              	.LVL67:
 803 001c 6570     		strb	r5, [r4, #1]
 881:Drivers/STM32F1xx_HAL_Driver/Src/stm32f1xx_hal_pcd.c ****   ep->maxpacket = ep_mps;
 804              		.loc 1 881 0
 805 001e 2261     		str	r2, [r4, #16]
 882:Drivers/STM32F1xx_HAL_Driver/Src/stm32f1xx_hal_pcd.c ****   ep->type = ep_type;
 806              		.loc 1 882 0
 807 0020 E370     		strb	r3, [r4, #3]
 883:Drivers/STM32F1xx_HAL_Driver/Src/stm32f1xx_hal_pcd.c ****     
 884:Drivers/STM32F1xx_HAL_Driver/Src/stm32f1xx_hal_pcd.c ****   __HAL_LOCK(hpcd);
 808              		.loc 1 884 0
 809 0022 90F82834 		ldrb	r3, [r0, #1064]	@ zero_extendqisi2
 810              	.LVL68:
 811 0026 012B     		cmp	r3, #1
 812 0028 07D1     		bne	.L81
 813 002a 0220     		movs	r0, #2
 814              	.LVL69:
 885:Drivers/STM32F1xx_HAL_Driver/Src/stm32f1xx_hal_pcd.c ****   USB_ActivateEndpoint(hpcd->Instance , ep);
 886:Drivers/STM32F1xx_HAL_Driver/Src/stm32f1xx_hal_pcd.c ****   __HAL_UNLOCK(hpcd);
 887:Drivers/STM32F1xx_HAL_Driver/Src/stm32f1xx_hal_pcd.c ****   return ret;
ARM GAS  /tmp/cc956sXB.s 			page 31


 888:Drivers/STM32F1xx_HAL_Driver/Src/stm32f1xx_hal_pcd.c **** }
 815              		.loc 1 888 0
 816 002c 38BD     		pop	{r3, r4, r5, pc}
 817              	.LVL70:
 818              	.L80:
 872:Drivers/STM32F1xx_HAL_Driver/Src/stm32f1xx_hal_pcd.c ****   }
 819              		.loc 1 872 0
 820 002e 01F07F04 		and	r4, r1, #127
 821 0032 6401     		lsls	r4, r4, #5
 822 0034 2834     		adds	r4, r4, #40
 823 0036 0444     		add	r4, r4, r0
 824              	.LVL71:
 825 0038 ECE7     		b	.L76
 826              	.LVL72:
 827              	.L81:
 828 003a 0546     		mov	r5, r0
 884:Drivers/STM32F1xx_HAL_Driver/Src/stm32f1xx_hal_pcd.c ****   USB_ActivateEndpoint(hpcd->Instance , ep);
 829              		.loc 1 884 0 discriminator 2
 830 003c 0123     		movs	r3, #1
 831 003e 80F82834 		strb	r3, [r0, #1064]
 832              	.LVL73:
 885:Drivers/STM32F1xx_HAL_Driver/Src/stm32f1xx_hal_pcd.c ****   USB_ActivateEndpoint(hpcd->Instance , ep);
 833              		.loc 1 885 0 discriminator 2
 834 0042 2146     		mov	r1, r4
 835 0044 0068     		ldr	r0, [r0]
 836              	.LVL74:
 837 0046 FFF7FEFF 		bl	USB_ActivateEndpoint
 838              	.LVL75:
 886:Drivers/STM32F1xx_HAL_Driver/Src/stm32f1xx_hal_pcd.c ****   return ret;
 839              		.loc 1 886 0 discriminator 2
 840 004a 0020     		movs	r0, #0
 841 004c 85F82804 		strb	r0, [r5, #1064]
 887:Drivers/STM32F1xx_HAL_Driver/Src/stm32f1xx_hal_pcd.c **** }
 842              		.loc 1 887 0 discriminator 2
 843 0050 38BD     		pop	{r3, r4, r5, pc}
 844              		.cfi_endproc
 845              	.LFE85:
 847              		.section	.text.HAL_PCD_EP_Close,"ax",%progbits
 848              		.align	1
 849              		.global	HAL_PCD_EP_Close
 850              		.syntax unified
 851              		.thumb
 852              		.thumb_func
 853              		.fpu softvfp
 855              	HAL_PCD_EP_Close:
 856              	.LFB86:
 889:Drivers/STM32F1xx_HAL_Driver/Src/stm32f1xx_hal_pcd.c **** 
 890:Drivers/STM32F1xx_HAL_Driver/Src/stm32f1xx_hal_pcd.c **** /**
 891:Drivers/STM32F1xx_HAL_Driver/Src/stm32f1xx_hal_pcd.c ****   * @brief  Deactivate an endpoint
 892:Drivers/STM32F1xx_HAL_Driver/Src/stm32f1xx_hal_pcd.c ****   * @param  hpcd: PCD handle
 893:Drivers/STM32F1xx_HAL_Driver/Src/stm32f1xx_hal_pcd.c ****   * @param  ep_addr: endpoint address
 894:Drivers/STM32F1xx_HAL_Driver/Src/stm32f1xx_hal_pcd.c ****   * @retval HAL status
 895:Drivers/STM32F1xx_HAL_Driver/Src/stm32f1xx_hal_pcd.c ****   */
 896:Drivers/STM32F1xx_HAL_Driver/Src/stm32f1xx_hal_pcd.c **** HAL_StatusTypeDef HAL_PCD_EP_Close(PCD_HandleTypeDef *hpcd, uint8_t ep_addr)
 897:Drivers/STM32F1xx_HAL_Driver/Src/stm32f1xx_hal_pcd.c **** {  
 857              		.loc 1 897 0
 858              		.cfi_startproc
ARM GAS  /tmp/cc956sXB.s 			page 32


 859              		@ args = 0, pretend = 0, frame = 0
 860              		@ frame_needed = 0, uses_anonymous_args = 0
 861              	.LVL76:
 898:Drivers/STM32F1xx_HAL_Driver/Src/stm32f1xx_hal_pcd.c ****   PCD_EPTypeDef *ep = NULL;
 899:Drivers/STM32F1xx_HAL_Driver/Src/stm32f1xx_hal_pcd.c ****   
 900:Drivers/STM32F1xx_HAL_Driver/Src/stm32f1xx_hal_pcd.c ****   if ((ep_addr & 0x80U) == 0x80U)
 862              		.loc 1 900 0
 863 0000 4AB2     		sxtb	r2, r1
 864 0002 002A     		cmp	r2, #0
 865 0004 10DB     		blt	.L91
 901:Drivers/STM32F1xx_HAL_Driver/Src/stm32f1xx_hal_pcd.c ****   {
 902:Drivers/STM32F1xx_HAL_Driver/Src/stm32f1xx_hal_pcd.c ****     ep = &hpcd->IN_ep[ep_addr & 0x7FU];
 903:Drivers/STM32F1xx_HAL_Driver/Src/stm32f1xx_hal_pcd.c ****   }
 904:Drivers/STM32F1xx_HAL_Driver/Src/stm32f1xx_hal_pcd.c ****   else
 905:Drivers/STM32F1xx_HAL_Driver/Src/stm32f1xx_hal_pcd.c ****   {
 906:Drivers/STM32F1xx_HAL_Driver/Src/stm32f1xx_hal_pcd.c ****     ep = &hpcd->OUT_ep[ep_addr & 0x7FU];
 866              		.loc 1 906 0
 867 0006 01F07F03 		and	r3, r1, #127
 868 000a 5B01     		lsls	r3, r3, #5
 869 000c 03F50A73 		add	r3, r3, #552
 870 0010 0344     		add	r3, r3, r0
 871              	.LVL77:
 872              	.L84:
 907:Drivers/STM32F1xx_HAL_Driver/Src/stm32f1xx_hal_pcd.c ****   }
 908:Drivers/STM32F1xx_HAL_Driver/Src/stm32f1xx_hal_pcd.c ****   ep->num   = ep_addr & 0x7FU;
 873              		.loc 1 908 0
 874 0012 01F07F01 		and	r1, r1, #127
 875              	.LVL78:
 876 0016 1970     		strb	r1, [r3]
 909:Drivers/STM32F1xx_HAL_Driver/Src/stm32f1xx_hal_pcd.c ****   
 910:Drivers/STM32F1xx_HAL_Driver/Src/stm32f1xx_hal_pcd.c ****   ep->is_in = (0x80U & ep_addr) != 0U;
 877              		.loc 1 910 0
 878 0018 D20F     		lsrs	r2, r2, #31
 879              	.LVL79:
 880 001a 5A70     		strb	r2, [r3, #1]
 911:Drivers/STM32F1xx_HAL_Driver/Src/stm32f1xx_hal_pcd.c ****   
 912:Drivers/STM32F1xx_HAL_Driver/Src/stm32f1xx_hal_pcd.c ****   __HAL_LOCK(hpcd);
 881              		.loc 1 912 0
 882 001c 90F82824 		ldrb	r2, [r0, #1064]	@ zero_extendqisi2
 883 0020 012A     		cmp	r2, #1
 884 0022 07D1     		bne	.L92
 885 0024 0220     		movs	r0, #2
 886              	.LVL80:
 887 0026 7047     		bx	lr
 888              	.LVL81:
 889              	.L91:
 902:Drivers/STM32F1xx_HAL_Driver/Src/stm32f1xx_hal_pcd.c ****   }
 890              		.loc 1 902 0
 891 0028 01F07F03 		and	r3, r1, #127
 892 002c 5B01     		lsls	r3, r3, #5
 893 002e 2833     		adds	r3, r3, #40
 894 0030 0344     		add	r3, r3, r0
 895              	.LVL82:
 896 0032 EEE7     		b	.L84
 897              	.LVL83:
 898              	.L92:
 897:Drivers/STM32F1xx_HAL_Driver/Src/stm32f1xx_hal_pcd.c ****   PCD_EPTypeDef *ep = NULL;
ARM GAS  /tmp/cc956sXB.s 			page 33


 899              		.loc 1 897 0 discriminator 2
 900 0034 10B5     		push	{r4, lr}
 901              	.LCFI12:
 902              		.cfi_def_cfa_offset 8
 903              		.cfi_offset 4, -8
 904              		.cfi_offset 14, -4
 905 0036 0446     		mov	r4, r0
 906              		.loc 1 912 0 discriminator 2
 907 0038 0122     		movs	r2, #1
 908 003a 80F82824 		strb	r2, [r0, #1064]
 913:Drivers/STM32F1xx_HAL_Driver/Src/stm32f1xx_hal_pcd.c ****   USB_DeactivateEndpoint(hpcd->Instance , ep);
 909              		.loc 1 913 0 discriminator 2
 910 003e 1946     		mov	r1, r3
 911 0040 0068     		ldr	r0, [r0]
 912              	.LVL84:
 913 0042 FFF7FEFF 		bl	USB_DeactivateEndpoint
 914              	.LVL85:
 914:Drivers/STM32F1xx_HAL_Driver/Src/stm32f1xx_hal_pcd.c ****   __HAL_UNLOCK(hpcd);
 915              		.loc 1 914 0 discriminator 2
 916 0046 0020     		movs	r0, #0
 917 0048 84F82804 		strb	r0, [r4, #1064]
 915:Drivers/STM32F1xx_HAL_Driver/Src/stm32f1xx_hal_pcd.c ****   return HAL_OK;
 918              		.loc 1 915 0 discriminator 2
 919 004c 10BD     		pop	{r4, pc}
 920              		.cfi_endproc
 921              	.LFE86:
 923              		.section	.text.HAL_PCD_EP_Receive,"ax",%progbits
 924              		.align	1
 925              		.global	HAL_PCD_EP_Receive
 926              		.syntax unified
 927              		.thumb
 928              		.thumb_func
 929              		.fpu softvfp
 931              	HAL_PCD_EP_Receive:
 932              	.LFB87:
 916:Drivers/STM32F1xx_HAL_Driver/Src/stm32f1xx_hal_pcd.c **** }
 917:Drivers/STM32F1xx_HAL_Driver/Src/stm32f1xx_hal_pcd.c **** 
 918:Drivers/STM32F1xx_HAL_Driver/Src/stm32f1xx_hal_pcd.c **** 
 919:Drivers/STM32F1xx_HAL_Driver/Src/stm32f1xx_hal_pcd.c **** /**
 920:Drivers/STM32F1xx_HAL_Driver/Src/stm32f1xx_hal_pcd.c ****   * @brief  Receive an amount of data
 921:Drivers/STM32F1xx_HAL_Driver/Src/stm32f1xx_hal_pcd.c ****   * @param  hpcd: PCD handle
 922:Drivers/STM32F1xx_HAL_Driver/Src/stm32f1xx_hal_pcd.c ****   * @param  ep_addr: endpoint address
 923:Drivers/STM32F1xx_HAL_Driver/Src/stm32f1xx_hal_pcd.c ****   * @param  pBuf: pointer to the reception buffer
 924:Drivers/STM32F1xx_HAL_Driver/Src/stm32f1xx_hal_pcd.c ****   * @param  len: amount of data to be received
 925:Drivers/STM32F1xx_HAL_Driver/Src/stm32f1xx_hal_pcd.c ****   * @retval HAL status
 926:Drivers/STM32F1xx_HAL_Driver/Src/stm32f1xx_hal_pcd.c ****   */
 927:Drivers/STM32F1xx_HAL_Driver/Src/stm32f1xx_hal_pcd.c **** HAL_StatusTypeDef HAL_PCD_EP_Receive(PCD_HandleTypeDef *hpcd, uint8_t ep_addr, uint8_t *pBuf, uint3
 928:Drivers/STM32F1xx_HAL_Driver/Src/stm32f1xx_hal_pcd.c **** {
 933              		.loc 1 928 0
 934              		.cfi_startproc
 935              		@ args = 0, pretend = 0, frame = 0
 936              		@ frame_needed = 0, uses_anonymous_args = 0
 937              	.LVL86:
 938 0000 70B5     		push	{r4, r5, r6, lr}
 939              	.LCFI13:
 940              		.cfi_def_cfa_offset 16
 941              		.cfi_offset 4, -16
ARM GAS  /tmp/cc956sXB.s 			page 34


 942              		.cfi_offset 5, -12
 943              		.cfi_offset 6, -8
 944              		.cfi_offset 14, -4
 945              	.LVL87:
 946 0002 01F07F05 		and	r5, r1, #127
 929:Drivers/STM32F1xx_HAL_Driver/Src/stm32f1xx_hal_pcd.c ****   PCD_EPTypeDef *ep = NULL;
 930:Drivers/STM32F1xx_HAL_Driver/Src/stm32f1xx_hal_pcd.c ****   
 931:Drivers/STM32F1xx_HAL_Driver/Src/stm32f1xx_hal_pcd.c ****   ep = &hpcd->OUT_ep[ep_addr & 0x7FU];
 947              		.loc 1 931 0
 948 0006 6C01     		lsls	r4, r5, #5
 949 0008 04F50A71 		add	r1, r4, #552
 950              	.LVL88:
 951 000c 0144     		add	r1, r1, r0
 952              	.LVL89:
 932:Drivers/STM32F1xx_HAL_Driver/Src/stm32f1xx_hal_pcd.c ****   
 933:Drivers/STM32F1xx_HAL_Driver/Src/stm32f1xx_hal_pcd.c ****   /*setup and start the Xfer */
 934:Drivers/STM32F1xx_HAL_Driver/Src/stm32f1xx_hal_pcd.c ****   ep->xfer_buff = pBuf;  
 953              		.loc 1 934 0
 954 000e 0444     		add	r4, r4, r0
 955 0010 C4F83C22 		str	r2, [r4, #572]
 935:Drivers/STM32F1xx_HAL_Driver/Src/stm32f1xx_hal_pcd.c ****   ep->xfer_len = len;
 956              		.loc 1 935 0
 957 0014 05F11202 		add	r2, r5, #18
 958              	.LVL90:
 959 0018 5201     		lsls	r2, r2, #5
 960 001a 8618     		adds	r6, r0, r2
 961 001c 8350     		str	r3, [r0, r2]
 962              	.LVL91:
 936:Drivers/STM32F1xx_HAL_Driver/Src/stm32f1xx_hal_pcd.c ****   ep->xfer_count = 0U;
 963              		.loc 1 936 0
 964 001e 0023     		movs	r3, #0
 965              	.LVL92:
 966 0020 7360     		str	r3, [r6, #4]
 937:Drivers/STM32F1xx_HAL_Driver/Src/stm32f1xx_hal_pcd.c ****   ep->is_in = 0U;
 967              		.loc 1 937 0
 968 0022 84F82932 		strb	r3, [r4, #553]
 969              	.LVL93:
 938:Drivers/STM32F1xx_HAL_Driver/Src/stm32f1xx_hal_pcd.c ****   ep->num = ep_addr & 0x7FU;
 970              		.loc 1 938 0
 971 0026 84F82852 		strb	r5, [r4, #552]
 939:Drivers/STM32F1xx_HAL_Driver/Src/stm32f1xx_hal_pcd.c **** 
 940:Drivers/STM32F1xx_HAL_Driver/Src/stm32f1xx_hal_pcd.c ****   if ((ep_addr & 0x7FU) == 0U)
 972              		.loc 1 940 0
 973 002a 25B1     		cbz	r5, .L97
 941:Drivers/STM32F1xx_HAL_Driver/Src/stm32f1xx_hal_pcd.c ****   {
 942:Drivers/STM32F1xx_HAL_Driver/Src/stm32f1xx_hal_pcd.c ****     USB_EP0StartXfer(hpcd->Instance , ep);
 943:Drivers/STM32F1xx_HAL_Driver/Src/stm32f1xx_hal_pcd.c ****   }
 944:Drivers/STM32F1xx_HAL_Driver/Src/stm32f1xx_hal_pcd.c ****   else
 945:Drivers/STM32F1xx_HAL_Driver/Src/stm32f1xx_hal_pcd.c ****   {
 946:Drivers/STM32F1xx_HAL_Driver/Src/stm32f1xx_hal_pcd.c ****     USB_EPStartXfer(hpcd->Instance , ep);
 974              		.loc 1 946 0
 975 002c 0068     		ldr	r0, [r0]
 976              	.LVL94:
 977 002e FFF7FEFF 		bl	USB_EPStartXfer
 978              	.LVL95:
 979              	.L95:
 947:Drivers/STM32F1xx_HAL_Driver/Src/stm32f1xx_hal_pcd.c ****   }
ARM GAS  /tmp/cc956sXB.s 			page 35


 948:Drivers/STM32F1xx_HAL_Driver/Src/stm32f1xx_hal_pcd.c **** 
 949:Drivers/STM32F1xx_HAL_Driver/Src/stm32f1xx_hal_pcd.c ****   return HAL_OK;
 950:Drivers/STM32F1xx_HAL_Driver/Src/stm32f1xx_hal_pcd.c **** }
 980              		.loc 1 950 0
 981 0032 0020     		movs	r0, #0
 982 0034 70BD     		pop	{r4, r5, r6, pc}
 983              	.LVL96:
 984              	.L97:
 942:Drivers/STM32F1xx_HAL_Driver/Src/stm32f1xx_hal_pcd.c ****   }
 985              		.loc 1 942 0
 986 0036 0068     		ldr	r0, [r0]
 987              	.LVL97:
 988 0038 FFF7FEFF 		bl	USB_EPStartXfer
 989              	.LVL98:
 990 003c F9E7     		b	.L95
 991              		.cfi_endproc
 992              	.LFE87:
 994              		.section	.text.HAL_PCD_EP_GetRxCount,"ax",%progbits
 995              		.align	1
 996              		.global	HAL_PCD_EP_GetRxCount
 997              		.syntax unified
 998              		.thumb
 999              		.thumb_func
 1000              		.fpu softvfp
 1002              	HAL_PCD_EP_GetRxCount:
 1003              	.LFB88:
 951:Drivers/STM32F1xx_HAL_Driver/Src/stm32f1xx_hal_pcd.c **** 
 952:Drivers/STM32F1xx_HAL_Driver/Src/stm32f1xx_hal_pcd.c **** /**
 953:Drivers/STM32F1xx_HAL_Driver/Src/stm32f1xx_hal_pcd.c ****   * @brief  Get Received Data Size
 954:Drivers/STM32F1xx_HAL_Driver/Src/stm32f1xx_hal_pcd.c ****   * @param  hpcd: PCD handle
 955:Drivers/STM32F1xx_HAL_Driver/Src/stm32f1xx_hal_pcd.c ****   * @param  ep_addr: endpoint address
 956:Drivers/STM32F1xx_HAL_Driver/Src/stm32f1xx_hal_pcd.c ****   * @retval Data Size
 957:Drivers/STM32F1xx_HAL_Driver/Src/stm32f1xx_hal_pcd.c ****   */
 958:Drivers/STM32F1xx_HAL_Driver/Src/stm32f1xx_hal_pcd.c **** uint16_t HAL_PCD_EP_GetRxCount(PCD_HandleTypeDef *hpcd, uint8_t ep_addr)
 959:Drivers/STM32F1xx_HAL_Driver/Src/stm32f1xx_hal_pcd.c **** {
 1004              		.loc 1 959 0
 1005              		.cfi_startproc
 1006              		@ args = 0, pretend = 0, frame = 0
 1007              		@ frame_needed = 0, uses_anonymous_args = 0
 1008              		@ link register save eliminated.
 1009              	.LVL99:
 960:Drivers/STM32F1xx_HAL_Driver/Src/stm32f1xx_hal_pcd.c ****   return hpcd->OUT_ep[ep_addr & 0xF].xfer_count;
 1010              		.loc 1 960 0
 1011 0000 01F00F01 		and	r1, r1, #15
 1012              	.LVL100:
 1013 0004 1231     		adds	r1, r1, #18
 1014 0006 00EB4111 		add	r1, r0, r1, lsl #5
 961:Drivers/STM32F1xx_HAL_Driver/Src/stm32f1xx_hal_pcd.c **** }
 1015              		.loc 1 961 0
 1016 000a 8888     		ldrh	r0, [r1, #4]
 1017              	.LVL101:
 1018 000c 7047     		bx	lr
 1019              		.cfi_endproc
 1020              	.LFE88:
 1022              		.section	.text.HAL_PCD_EP_Transmit,"ax",%progbits
 1023              		.align	1
 1024              		.global	HAL_PCD_EP_Transmit
ARM GAS  /tmp/cc956sXB.s 			page 36


 1025              		.syntax unified
 1026              		.thumb
 1027              		.thumb_func
 1028              		.fpu softvfp
 1030              	HAL_PCD_EP_Transmit:
 1031              	.LFB89:
 962:Drivers/STM32F1xx_HAL_Driver/Src/stm32f1xx_hal_pcd.c **** /**
 963:Drivers/STM32F1xx_HAL_Driver/Src/stm32f1xx_hal_pcd.c ****   * @brief  Send an amount of data
 964:Drivers/STM32F1xx_HAL_Driver/Src/stm32f1xx_hal_pcd.c ****   * @param  hpcd: PCD handle
 965:Drivers/STM32F1xx_HAL_Driver/Src/stm32f1xx_hal_pcd.c ****   * @param  ep_addr: endpoint address
 966:Drivers/STM32F1xx_HAL_Driver/Src/stm32f1xx_hal_pcd.c ****   * @param  pBuf: pointer to the transmission buffer
 967:Drivers/STM32F1xx_HAL_Driver/Src/stm32f1xx_hal_pcd.c ****   * @param  len: amount of data to be sent
 968:Drivers/STM32F1xx_HAL_Driver/Src/stm32f1xx_hal_pcd.c ****   * @retval HAL status
 969:Drivers/STM32F1xx_HAL_Driver/Src/stm32f1xx_hal_pcd.c ****   */
 970:Drivers/STM32F1xx_HAL_Driver/Src/stm32f1xx_hal_pcd.c **** HAL_StatusTypeDef HAL_PCD_EP_Transmit(PCD_HandleTypeDef *hpcd, uint8_t ep_addr, uint8_t *pBuf, uint
 971:Drivers/STM32F1xx_HAL_Driver/Src/stm32f1xx_hal_pcd.c **** {
 1032              		.loc 1 971 0
 1033              		.cfi_startproc
 1034              		@ args = 0, pretend = 0, frame = 0
 1035              		@ frame_needed = 0, uses_anonymous_args = 0
 1036              	.LVL102:
 1037 0000 70B5     		push	{r4, r5, r6, lr}
 1038              	.LCFI14:
 1039              		.cfi_def_cfa_offset 16
 1040              		.cfi_offset 4, -16
 1041              		.cfi_offset 5, -12
 1042              		.cfi_offset 6, -8
 1043              		.cfi_offset 14, -4
 1044              	.LVL103:
 1045 0002 01F07F05 		and	r5, r1, #127
 972:Drivers/STM32F1xx_HAL_Driver/Src/stm32f1xx_hal_pcd.c ****   PCD_EPTypeDef *ep = NULL;
 973:Drivers/STM32F1xx_HAL_Driver/Src/stm32f1xx_hal_pcd.c ****   
 974:Drivers/STM32F1xx_HAL_Driver/Src/stm32f1xx_hal_pcd.c ****   ep = &hpcd->IN_ep[ep_addr & 0x7FU];
 1046              		.loc 1 974 0
 1047 0006 6C01     		lsls	r4, r5, #5
 1048 0008 04F12801 		add	r1, r4, #40
 1049              	.LVL104:
 1050 000c 0144     		add	r1, r1, r0
 1051              	.LVL105:
 975:Drivers/STM32F1xx_HAL_Driver/Src/stm32f1xx_hal_pcd.c ****   
 976:Drivers/STM32F1xx_HAL_Driver/Src/stm32f1xx_hal_pcd.c ****   /*setup and start the Xfer */
 977:Drivers/STM32F1xx_HAL_Driver/Src/stm32f1xx_hal_pcd.c ****   ep->xfer_buff = pBuf;  
 1052              		.loc 1 977 0
 1053 000e 0444     		add	r4, r4, r0
 1054 0010 E263     		str	r2, [r4, #60]
 978:Drivers/STM32F1xx_HAL_Driver/Src/stm32f1xx_hal_pcd.c ****   ep->xfer_len = len;
 1055              		.loc 1 978 0
 1056 0012 AA1C     		adds	r2, r5, #2
 1057              	.LVL106:
 1058 0014 5201     		lsls	r2, r2, #5
 1059 0016 8618     		adds	r6, r0, r2
 1060 0018 8350     		str	r3, [r0, r2]
 1061              	.LVL107:
 979:Drivers/STM32F1xx_HAL_Driver/Src/stm32f1xx_hal_pcd.c ****   ep->xfer_count = 0U;
 1062              		.loc 1 979 0
 1063 001a 0023     		movs	r3, #0
 1064              	.LVL108:
ARM GAS  /tmp/cc956sXB.s 			page 37


 1065 001c 7360     		str	r3, [r6, #4]
 980:Drivers/STM32F1xx_HAL_Driver/Src/stm32f1xx_hal_pcd.c ****   ep->is_in = 1U;
 1066              		.loc 1 980 0
 1067 001e 0123     		movs	r3, #1
 1068 0020 84F82930 		strb	r3, [r4, #41]
 1069              	.LVL109:
 981:Drivers/STM32F1xx_HAL_Driver/Src/stm32f1xx_hal_pcd.c ****   ep->num = ep_addr & 0x7FU;
 1070              		.loc 1 981 0
 1071 0024 84F82850 		strb	r5, [r4, #40]
 982:Drivers/STM32F1xx_HAL_Driver/Src/stm32f1xx_hal_pcd.c **** 
 983:Drivers/STM32F1xx_HAL_Driver/Src/stm32f1xx_hal_pcd.c ****   if ((ep_addr & 0x7FU) == 0U)
 1072              		.loc 1 983 0
 1073 0028 25B1     		cbz	r5, .L103
 984:Drivers/STM32F1xx_HAL_Driver/Src/stm32f1xx_hal_pcd.c ****   {
 985:Drivers/STM32F1xx_HAL_Driver/Src/stm32f1xx_hal_pcd.c ****     USB_EP0StartXfer(hpcd->Instance , ep);
 986:Drivers/STM32F1xx_HAL_Driver/Src/stm32f1xx_hal_pcd.c ****   }
 987:Drivers/STM32F1xx_HAL_Driver/Src/stm32f1xx_hal_pcd.c ****   else
 988:Drivers/STM32F1xx_HAL_Driver/Src/stm32f1xx_hal_pcd.c ****   {
 989:Drivers/STM32F1xx_HAL_Driver/Src/stm32f1xx_hal_pcd.c ****     USB_EPStartXfer(hpcd->Instance , ep);
 1074              		.loc 1 989 0
 1075 002a 0068     		ldr	r0, [r0]
 1076              	.LVL110:
 1077 002c FFF7FEFF 		bl	USB_EPStartXfer
 1078              	.LVL111:
 1079              	.L101:
 990:Drivers/STM32F1xx_HAL_Driver/Src/stm32f1xx_hal_pcd.c ****   }
 991:Drivers/STM32F1xx_HAL_Driver/Src/stm32f1xx_hal_pcd.c **** 
 992:Drivers/STM32F1xx_HAL_Driver/Src/stm32f1xx_hal_pcd.c ****   return HAL_OK;
 993:Drivers/STM32F1xx_HAL_Driver/Src/stm32f1xx_hal_pcd.c **** }
 1080              		.loc 1 993 0
 1081 0030 0020     		movs	r0, #0
 1082 0032 70BD     		pop	{r4, r5, r6, pc}
 1083              	.LVL112:
 1084              	.L103:
 985:Drivers/STM32F1xx_HAL_Driver/Src/stm32f1xx_hal_pcd.c ****   }
 1085              		.loc 1 985 0
 1086 0034 0068     		ldr	r0, [r0]
 1087              	.LVL113:
 1088 0036 FFF7FEFF 		bl	USB_EPStartXfer
 1089              	.LVL114:
 1090 003a F9E7     		b	.L101
 1091              		.cfi_endproc
 1092              	.LFE89:
 1094              		.section	.text.PCD_EP_ISR_Handler,"ax",%progbits
 1095              		.align	1
 1096              		.syntax unified
 1097              		.thumb
 1098              		.thumb_func
 1099              		.fpu softvfp
 1101              	PCD_EP_ISR_Handler:
 1102              	.LFB96:
 994:Drivers/STM32F1xx_HAL_Driver/Src/stm32f1xx_hal_pcd.c **** 
 995:Drivers/STM32F1xx_HAL_Driver/Src/stm32f1xx_hal_pcd.c **** /**
 996:Drivers/STM32F1xx_HAL_Driver/Src/stm32f1xx_hal_pcd.c ****   * @brief  Set a STALL condition over an endpoint
 997:Drivers/STM32F1xx_HAL_Driver/Src/stm32f1xx_hal_pcd.c ****   * @param  hpcd: PCD handle
 998:Drivers/STM32F1xx_HAL_Driver/Src/stm32f1xx_hal_pcd.c ****   * @param  ep_addr: endpoint address
 999:Drivers/STM32F1xx_HAL_Driver/Src/stm32f1xx_hal_pcd.c ****   * @retval HAL status
ARM GAS  /tmp/cc956sXB.s 			page 38


1000:Drivers/STM32F1xx_HAL_Driver/Src/stm32f1xx_hal_pcd.c ****   */
1001:Drivers/STM32F1xx_HAL_Driver/Src/stm32f1xx_hal_pcd.c **** HAL_StatusTypeDef HAL_PCD_EP_SetStall(PCD_HandleTypeDef *hpcd, uint8_t ep_addr)
1002:Drivers/STM32F1xx_HAL_Driver/Src/stm32f1xx_hal_pcd.c **** {
1003:Drivers/STM32F1xx_HAL_Driver/Src/stm32f1xx_hal_pcd.c ****   PCD_EPTypeDef *ep = NULL;
1004:Drivers/STM32F1xx_HAL_Driver/Src/stm32f1xx_hal_pcd.c ****   
1005:Drivers/STM32F1xx_HAL_Driver/Src/stm32f1xx_hal_pcd.c ****   if ((0x80U & ep_addr) == 0x80U)
1006:Drivers/STM32F1xx_HAL_Driver/Src/stm32f1xx_hal_pcd.c ****   {
1007:Drivers/STM32F1xx_HAL_Driver/Src/stm32f1xx_hal_pcd.c ****     ep = &hpcd->IN_ep[ep_addr & 0x7FU];
1008:Drivers/STM32F1xx_HAL_Driver/Src/stm32f1xx_hal_pcd.c ****   }
1009:Drivers/STM32F1xx_HAL_Driver/Src/stm32f1xx_hal_pcd.c ****   else
1010:Drivers/STM32F1xx_HAL_Driver/Src/stm32f1xx_hal_pcd.c ****   {
1011:Drivers/STM32F1xx_HAL_Driver/Src/stm32f1xx_hal_pcd.c ****     ep = &hpcd->OUT_ep[ep_addr];
1012:Drivers/STM32F1xx_HAL_Driver/Src/stm32f1xx_hal_pcd.c ****   }
1013:Drivers/STM32F1xx_HAL_Driver/Src/stm32f1xx_hal_pcd.c ****   
1014:Drivers/STM32F1xx_HAL_Driver/Src/stm32f1xx_hal_pcd.c ****   ep->is_stall = 1U;
1015:Drivers/STM32F1xx_HAL_Driver/Src/stm32f1xx_hal_pcd.c ****   ep->num   = ep_addr & 0x7FU;
1016:Drivers/STM32F1xx_HAL_Driver/Src/stm32f1xx_hal_pcd.c ****   ep->is_in = ((ep_addr & 0x80U) == 0x80U);
1017:Drivers/STM32F1xx_HAL_Driver/Src/stm32f1xx_hal_pcd.c ****   
1018:Drivers/STM32F1xx_HAL_Driver/Src/stm32f1xx_hal_pcd.c ****   __HAL_LOCK(hpcd);
1019:Drivers/STM32F1xx_HAL_Driver/Src/stm32f1xx_hal_pcd.c ****   USB_EPSetStall(hpcd->Instance , ep);
1020:Drivers/STM32F1xx_HAL_Driver/Src/stm32f1xx_hal_pcd.c ****   if((ep_addr & 0x7FU) == 0U)
1021:Drivers/STM32F1xx_HAL_Driver/Src/stm32f1xx_hal_pcd.c ****   {
1022:Drivers/STM32F1xx_HAL_Driver/Src/stm32f1xx_hal_pcd.c ****     USB_EP0_OutStart(hpcd->Instance, (uint8_t *)hpcd->Setup);
1023:Drivers/STM32F1xx_HAL_Driver/Src/stm32f1xx_hal_pcd.c ****   }
1024:Drivers/STM32F1xx_HAL_Driver/Src/stm32f1xx_hal_pcd.c ****   __HAL_UNLOCK(hpcd); 
1025:Drivers/STM32F1xx_HAL_Driver/Src/stm32f1xx_hal_pcd.c ****   
1026:Drivers/STM32F1xx_HAL_Driver/Src/stm32f1xx_hal_pcd.c ****   return HAL_OK;
1027:Drivers/STM32F1xx_HAL_Driver/Src/stm32f1xx_hal_pcd.c **** }
1028:Drivers/STM32F1xx_HAL_Driver/Src/stm32f1xx_hal_pcd.c **** 
1029:Drivers/STM32F1xx_HAL_Driver/Src/stm32f1xx_hal_pcd.c **** /**
1030:Drivers/STM32F1xx_HAL_Driver/Src/stm32f1xx_hal_pcd.c ****   * @brief  Clear a STALL condition over in an endpoint
1031:Drivers/STM32F1xx_HAL_Driver/Src/stm32f1xx_hal_pcd.c ****   * @param  hpcd: PCD handle
1032:Drivers/STM32F1xx_HAL_Driver/Src/stm32f1xx_hal_pcd.c ****   * @param  ep_addr: endpoint address
1033:Drivers/STM32F1xx_HAL_Driver/Src/stm32f1xx_hal_pcd.c ****   * @retval HAL status
1034:Drivers/STM32F1xx_HAL_Driver/Src/stm32f1xx_hal_pcd.c ****   */
1035:Drivers/STM32F1xx_HAL_Driver/Src/stm32f1xx_hal_pcd.c **** HAL_StatusTypeDef HAL_PCD_EP_ClrStall(PCD_HandleTypeDef *hpcd, uint8_t ep_addr)
1036:Drivers/STM32F1xx_HAL_Driver/Src/stm32f1xx_hal_pcd.c **** {
1037:Drivers/STM32F1xx_HAL_Driver/Src/stm32f1xx_hal_pcd.c ****   PCD_EPTypeDef *ep = NULL;
1038:Drivers/STM32F1xx_HAL_Driver/Src/stm32f1xx_hal_pcd.c ****   
1039:Drivers/STM32F1xx_HAL_Driver/Src/stm32f1xx_hal_pcd.c ****   if ((0x80U & ep_addr) == 0x80U)
1040:Drivers/STM32F1xx_HAL_Driver/Src/stm32f1xx_hal_pcd.c ****   {
1041:Drivers/STM32F1xx_HAL_Driver/Src/stm32f1xx_hal_pcd.c ****     ep = &hpcd->IN_ep[ep_addr & 0x7FU];
1042:Drivers/STM32F1xx_HAL_Driver/Src/stm32f1xx_hal_pcd.c ****   }
1043:Drivers/STM32F1xx_HAL_Driver/Src/stm32f1xx_hal_pcd.c ****   else
1044:Drivers/STM32F1xx_HAL_Driver/Src/stm32f1xx_hal_pcd.c ****   {
1045:Drivers/STM32F1xx_HAL_Driver/Src/stm32f1xx_hal_pcd.c ****     ep = &hpcd->OUT_ep[ep_addr];
1046:Drivers/STM32F1xx_HAL_Driver/Src/stm32f1xx_hal_pcd.c ****   }
1047:Drivers/STM32F1xx_HAL_Driver/Src/stm32f1xx_hal_pcd.c ****   
1048:Drivers/STM32F1xx_HAL_Driver/Src/stm32f1xx_hal_pcd.c ****   ep->is_stall = 0U;
1049:Drivers/STM32F1xx_HAL_Driver/Src/stm32f1xx_hal_pcd.c ****   ep->num   = ep_addr & 0x7FU;
1050:Drivers/STM32F1xx_HAL_Driver/Src/stm32f1xx_hal_pcd.c ****   ep->is_in = ((ep_addr & 0x80U) == 0x80U);
1051:Drivers/STM32F1xx_HAL_Driver/Src/stm32f1xx_hal_pcd.c ****   
1052:Drivers/STM32F1xx_HAL_Driver/Src/stm32f1xx_hal_pcd.c ****   __HAL_LOCK(hpcd); 
1053:Drivers/STM32F1xx_HAL_Driver/Src/stm32f1xx_hal_pcd.c ****   USB_EPClearStall(hpcd->Instance , ep);
1054:Drivers/STM32F1xx_HAL_Driver/Src/stm32f1xx_hal_pcd.c ****   __HAL_UNLOCK(hpcd); 
1055:Drivers/STM32F1xx_HAL_Driver/Src/stm32f1xx_hal_pcd.c ****   
1056:Drivers/STM32F1xx_HAL_Driver/Src/stm32f1xx_hal_pcd.c ****   return HAL_OK;
ARM GAS  /tmp/cc956sXB.s 			page 39


1057:Drivers/STM32F1xx_HAL_Driver/Src/stm32f1xx_hal_pcd.c **** }
1058:Drivers/STM32F1xx_HAL_Driver/Src/stm32f1xx_hal_pcd.c **** 
1059:Drivers/STM32F1xx_HAL_Driver/Src/stm32f1xx_hal_pcd.c **** /**
1060:Drivers/STM32F1xx_HAL_Driver/Src/stm32f1xx_hal_pcd.c ****   * @brief  Flush an endpoint
1061:Drivers/STM32F1xx_HAL_Driver/Src/stm32f1xx_hal_pcd.c ****   * @param  hpcd: PCD handle
1062:Drivers/STM32F1xx_HAL_Driver/Src/stm32f1xx_hal_pcd.c ****   * @param  ep_addr: endpoint address
1063:Drivers/STM32F1xx_HAL_Driver/Src/stm32f1xx_hal_pcd.c ****   * @retval HAL status
1064:Drivers/STM32F1xx_HAL_Driver/Src/stm32f1xx_hal_pcd.c ****   */
1065:Drivers/STM32F1xx_HAL_Driver/Src/stm32f1xx_hal_pcd.c **** HAL_StatusTypeDef HAL_PCD_EP_Flush(PCD_HandleTypeDef *hpcd, uint8_t ep_addr)
1066:Drivers/STM32F1xx_HAL_Driver/Src/stm32f1xx_hal_pcd.c **** {
1067:Drivers/STM32F1xx_HAL_Driver/Src/stm32f1xx_hal_pcd.c ****   __HAL_LOCK(hpcd);
1068:Drivers/STM32F1xx_HAL_Driver/Src/stm32f1xx_hal_pcd.c ****   
1069:Drivers/STM32F1xx_HAL_Driver/Src/stm32f1xx_hal_pcd.c ****   if ((ep_addr & 0x80U) == 0x80U)
1070:Drivers/STM32F1xx_HAL_Driver/Src/stm32f1xx_hal_pcd.c ****   {
1071:Drivers/STM32F1xx_HAL_Driver/Src/stm32f1xx_hal_pcd.c ****     USB_FlushTxFifo(hpcd->Instance, ep_addr & 0x7FU);
1072:Drivers/STM32F1xx_HAL_Driver/Src/stm32f1xx_hal_pcd.c ****   }
1073:Drivers/STM32F1xx_HAL_Driver/Src/stm32f1xx_hal_pcd.c ****   else
1074:Drivers/STM32F1xx_HAL_Driver/Src/stm32f1xx_hal_pcd.c ****   {
1075:Drivers/STM32F1xx_HAL_Driver/Src/stm32f1xx_hal_pcd.c ****     USB_FlushRxFifo(hpcd->Instance);
1076:Drivers/STM32F1xx_HAL_Driver/Src/stm32f1xx_hal_pcd.c ****   }
1077:Drivers/STM32F1xx_HAL_Driver/Src/stm32f1xx_hal_pcd.c ****   
1078:Drivers/STM32F1xx_HAL_Driver/Src/stm32f1xx_hal_pcd.c ****   __HAL_UNLOCK(hpcd); 
1079:Drivers/STM32F1xx_HAL_Driver/Src/stm32f1xx_hal_pcd.c ****   
1080:Drivers/STM32F1xx_HAL_Driver/Src/stm32f1xx_hal_pcd.c ****   return HAL_OK;
1081:Drivers/STM32F1xx_HAL_Driver/Src/stm32f1xx_hal_pcd.c **** }
1082:Drivers/STM32F1xx_HAL_Driver/Src/stm32f1xx_hal_pcd.c **** 
1083:Drivers/STM32F1xx_HAL_Driver/Src/stm32f1xx_hal_pcd.c **** /**
1084:Drivers/STM32F1xx_HAL_Driver/Src/stm32f1xx_hal_pcd.c ****   * @brief  HAL_PCD_ActivateRemoteWakeup : active remote wakeup signalling
1085:Drivers/STM32F1xx_HAL_Driver/Src/stm32f1xx_hal_pcd.c ****   * @param  hpcd: PCD handle
1086:Drivers/STM32F1xx_HAL_Driver/Src/stm32f1xx_hal_pcd.c ****   * @retval HAL status
1087:Drivers/STM32F1xx_HAL_Driver/Src/stm32f1xx_hal_pcd.c ****   */
1088:Drivers/STM32F1xx_HAL_Driver/Src/stm32f1xx_hal_pcd.c **** HAL_StatusTypeDef HAL_PCD_ActivateRemoteWakeup(PCD_HandleTypeDef *hpcd)
1089:Drivers/STM32F1xx_HAL_Driver/Src/stm32f1xx_hal_pcd.c **** {
1090:Drivers/STM32F1xx_HAL_Driver/Src/stm32f1xx_hal_pcd.c ****   return(USB_ActivateRemoteWakeup(hpcd->Instance));
1091:Drivers/STM32F1xx_HAL_Driver/Src/stm32f1xx_hal_pcd.c **** }
1092:Drivers/STM32F1xx_HAL_Driver/Src/stm32f1xx_hal_pcd.c **** 
1093:Drivers/STM32F1xx_HAL_Driver/Src/stm32f1xx_hal_pcd.c **** /**
1094:Drivers/STM32F1xx_HAL_Driver/Src/stm32f1xx_hal_pcd.c ****   * @brief  HAL_PCD_DeActivateRemoteWakeup : de-active remote wakeup signalling
1095:Drivers/STM32F1xx_HAL_Driver/Src/stm32f1xx_hal_pcd.c ****   * @param  hpcd: PCD handle
1096:Drivers/STM32F1xx_HAL_Driver/Src/stm32f1xx_hal_pcd.c ****   * @retval HAL status
1097:Drivers/STM32F1xx_HAL_Driver/Src/stm32f1xx_hal_pcd.c ****   */
1098:Drivers/STM32F1xx_HAL_Driver/Src/stm32f1xx_hal_pcd.c **** HAL_StatusTypeDef HAL_PCD_DeActivateRemoteWakeup(PCD_HandleTypeDef *hpcd)
1099:Drivers/STM32F1xx_HAL_Driver/Src/stm32f1xx_hal_pcd.c **** {
1100:Drivers/STM32F1xx_HAL_Driver/Src/stm32f1xx_hal_pcd.c ****   return(USB_DeActivateRemoteWakeup(hpcd->Instance));
1101:Drivers/STM32F1xx_HAL_Driver/Src/stm32f1xx_hal_pcd.c **** }
1102:Drivers/STM32F1xx_HAL_Driver/Src/stm32f1xx_hal_pcd.c **** /**
1103:Drivers/STM32F1xx_HAL_Driver/Src/stm32f1xx_hal_pcd.c ****   * @}
1104:Drivers/STM32F1xx_HAL_Driver/Src/stm32f1xx_hal_pcd.c ****   */
1105:Drivers/STM32F1xx_HAL_Driver/Src/stm32f1xx_hal_pcd.c ****   
1106:Drivers/STM32F1xx_HAL_Driver/Src/stm32f1xx_hal_pcd.c **** /** @defgroup PCD_Exported_Functions_Group4 Peripheral State functions 
1107:Drivers/STM32F1xx_HAL_Driver/Src/stm32f1xx_hal_pcd.c ****  *  @brief   Peripheral State functions
1108:Drivers/STM32F1xx_HAL_Driver/Src/stm32f1xx_hal_pcd.c ****  *
1109:Drivers/STM32F1xx_HAL_Driver/Src/stm32f1xx_hal_pcd.c **** @verbatim
1110:Drivers/STM32F1xx_HAL_Driver/Src/stm32f1xx_hal_pcd.c ****  ===============================================================================
1111:Drivers/STM32F1xx_HAL_Driver/Src/stm32f1xx_hal_pcd.c ****                       ##### Peripheral State functions #####
1112:Drivers/STM32F1xx_HAL_Driver/Src/stm32f1xx_hal_pcd.c ****  ===============================================================================
1113:Drivers/STM32F1xx_HAL_Driver/Src/stm32f1xx_hal_pcd.c ****     [..]
ARM GAS  /tmp/cc956sXB.s 			page 40


1114:Drivers/STM32F1xx_HAL_Driver/Src/stm32f1xx_hal_pcd.c ****     This subsection permits to get in run-time the status of the peripheral 
1115:Drivers/STM32F1xx_HAL_Driver/Src/stm32f1xx_hal_pcd.c ****     and the data flow.
1116:Drivers/STM32F1xx_HAL_Driver/Src/stm32f1xx_hal_pcd.c **** 
1117:Drivers/STM32F1xx_HAL_Driver/Src/stm32f1xx_hal_pcd.c **** @endverbatim
1118:Drivers/STM32F1xx_HAL_Driver/Src/stm32f1xx_hal_pcd.c ****   * @{
1119:Drivers/STM32F1xx_HAL_Driver/Src/stm32f1xx_hal_pcd.c ****   */
1120:Drivers/STM32F1xx_HAL_Driver/Src/stm32f1xx_hal_pcd.c **** 
1121:Drivers/STM32F1xx_HAL_Driver/Src/stm32f1xx_hal_pcd.c **** /**
1122:Drivers/STM32F1xx_HAL_Driver/Src/stm32f1xx_hal_pcd.c ****   * @brief  Return the PCD state
1123:Drivers/STM32F1xx_HAL_Driver/Src/stm32f1xx_hal_pcd.c ****   * @param  hpcd: PCD handle
1124:Drivers/STM32F1xx_HAL_Driver/Src/stm32f1xx_hal_pcd.c ****   * @retval HAL state
1125:Drivers/STM32F1xx_HAL_Driver/Src/stm32f1xx_hal_pcd.c ****   */
1126:Drivers/STM32F1xx_HAL_Driver/Src/stm32f1xx_hal_pcd.c **** PCD_StateTypeDef HAL_PCD_GetState(PCD_HandleTypeDef *hpcd)
1127:Drivers/STM32F1xx_HAL_Driver/Src/stm32f1xx_hal_pcd.c **** {
1128:Drivers/STM32F1xx_HAL_Driver/Src/stm32f1xx_hal_pcd.c ****   return hpcd->State;
1129:Drivers/STM32F1xx_HAL_Driver/Src/stm32f1xx_hal_pcd.c **** }
1130:Drivers/STM32F1xx_HAL_Driver/Src/stm32f1xx_hal_pcd.c **** 
1131:Drivers/STM32F1xx_HAL_Driver/Src/stm32f1xx_hal_pcd.c **** /**
1132:Drivers/STM32F1xx_HAL_Driver/Src/stm32f1xx_hal_pcd.c ****   * @}
1133:Drivers/STM32F1xx_HAL_Driver/Src/stm32f1xx_hal_pcd.c ****   */
1134:Drivers/STM32F1xx_HAL_Driver/Src/stm32f1xx_hal_pcd.c **** 
1135:Drivers/STM32F1xx_HAL_Driver/Src/stm32f1xx_hal_pcd.c **** /**
1136:Drivers/STM32F1xx_HAL_Driver/Src/stm32f1xx_hal_pcd.c ****   * @}
1137:Drivers/STM32F1xx_HAL_Driver/Src/stm32f1xx_hal_pcd.c ****   */
1138:Drivers/STM32F1xx_HAL_Driver/Src/stm32f1xx_hal_pcd.c **** 
1139:Drivers/STM32F1xx_HAL_Driver/Src/stm32f1xx_hal_pcd.c **** /** @addtogroup PCD_Private_Functions
1140:Drivers/STM32F1xx_HAL_Driver/Src/stm32f1xx_hal_pcd.c ****   * @{
1141:Drivers/STM32F1xx_HAL_Driver/Src/stm32f1xx_hal_pcd.c ****   */
1142:Drivers/STM32F1xx_HAL_Driver/Src/stm32f1xx_hal_pcd.c **** #if defined (USB_OTG_FS)
1143:Drivers/STM32F1xx_HAL_Driver/Src/stm32f1xx_hal_pcd.c **** /**
1144:Drivers/STM32F1xx_HAL_Driver/Src/stm32f1xx_hal_pcd.c ****   * @brief  DCD_WriteEmptyTxFifo
1145:Drivers/STM32F1xx_HAL_Driver/Src/stm32f1xx_hal_pcd.c ****   *         check FIFO for the next packet to be loaded
1146:Drivers/STM32F1xx_HAL_Driver/Src/stm32f1xx_hal_pcd.c ****   * @param  hpcd: PCD handle
1147:Drivers/STM32F1xx_HAL_Driver/Src/stm32f1xx_hal_pcd.c ****   * @param  epnum : endpoint number
1148:Drivers/STM32F1xx_HAL_Driver/Src/stm32f1xx_hal_pcd.c ****   *          This parameter can be a value from 0 to 15  
1149:Drivers/STM32F1xx_HAL_Driver/Src/stm32f1xx_hal_pcd.c ****   * @retval HAL status
1150:Drivers/STM32F1xx_HAL_Driver/Src/stm32f1xx_hal_pcd.c ****   */
1151:Drivers/STM32F1xx_HAL_Driver/Src/stm32f1xx_hal_pcd.c **** static HAL_StatusTypeDef PCD_WriteEmptyTxFifo(PCD_HandleTypeDef *hpcd, uint32_t epnum)
1152:Drivers/STM32F1xx_HAL_Driver/Src/stm32f1xx_hal_pcd.c **** {
1153:Drivers/STM32F1xx_HAL_Driver/Src/stm32f1xx_hal_pcd.c ****   USB_OTG_GlobalTypeDef *USBx = hpcd->Instance;  
1154:Drivers/STM32F1xx_HAL_Driver/Src/stm32f1xx_hal_pcd.c ****   USB_OTG_EPTypeDef *ep = NULL;
1155:Drivers/STM32F1xx_HAL_Driver/Src/stm32f1xx_hal_pcd.c ****   int32_t len = 0;
1156:Drivers/STM32F1xx_HAL_Driver/Src/stm32f1xx_hal_pcd.c ****   uint32_t len32b = 0U;
1157:Drivers/STM32F1xx_HAL_Driver/Src/stm32f1xx_hal_pcd.c ****   uint32_t fifoemptymsk = 0U;
1158:Drivers/STM32F1xx_HAL_Driver/Src/stm32f1xx_hal_pcd.c ****   
1159:Drivers/STM32F1xx_HAL_Driver/Src/stm32f1xx_hal_pcd.c ****   ep = &hpcd->IN_ep[epnum];
1160:Drivers/STM32F1xx_HAL_Driver/Src/stm32f1xx_hal_pcd.c ****   len = ep->xfer_len - ep->xfer_count;
1161:Drivers/STM32F1xx_HAL_Driver/Src/stm32f1xx_hal_pcd.c ****   
1162:Drivers/STM32F1xx_HAL_Driver/Src/stm32f1xx_hal_pcd.c ****   if (len > ep->maxpacket)
1163:Drivers/STM32F1xx_HAL_Driver/Src/stm32f1xx_hal_pcd.c ****   {
1164:Drivers/STM32F1xx_HAL_Driver/Src/stm32f1xx_hal_pcd.c ****     len = ep->maxpacket;
1165:Drivers/STM32F1xx_HAL_Driver/Src/stm32f1xx_hal_pcd.c ****   }
1166:Drivers/STM32F1xx_HAL_Driver/Src/stm32f1xx_hal_pcd.c ****   
1167:Drivers/STM32F1xx_HAL_Driver/Src/stm32f1xx_hal_pcd.c ****   len32b = (len + 3U) / 4U;
1168:Drivers/STM32F1xx_HAL_Driver/Src/stm32f1xx_hal_pcd.c ****   
1169:Drivers/STM32F1xx_HAL_Driver/Src/stm32f1xx_hal_pcd.c ****   while ((USBx_INEP(epnum)->DTXFSTS & USB_OTG_DTXFSTS_INEPTFSAV) > len32b &&
1170:Drivers/STM32F1xx_HAL_Driver/Src/stm32f1xx_hal_pcd.c ****          ep->xfer_count < ep->xfer_len &&
ARM GAS  /tmp/cc956sXB.s 			page 41


1171:Drivers/STM32F1xx_HAL_Driver/Src/stm32f1xx_hal_pcd.c ****          ep->xfer_len != 0U)
1172:Drivers/STM32F1xx_HAL_Driver/Src/stm32f1xx_hal_pcd.c ****   {
1173:Drivers/STM32F1xx_HAL_Driver/Src/stm32f1xx_hal_pcd.c ****     /* Write the FIFO */
1174:Drivers/STM32F1xx_HAL_Driver/Src/stm32f1xx_hal_pcd.c ****     len = ep->xfer_len - ep->xfer_count;
1175:Drivers/STM32F1xx_HAL_Driver/Src/stm32f1xx_hal_pcd.c ****     
1176:Drivers/STM32F1xx_HAL_Driver/Src/stm32f1xx_hal_pcd.c ****     if ((uint32_t)len > ep->maxpacket)
1177:Drivers/STM32F1xx_HAL_Driver/Src/stm32f1xx_hal_pcd.c ****     {
1178:Drivers/STM32F1xx_HAL_Driver/Src/stm32f1xx_hal_pcd.c ****       len = ep->maxpacket;
1179:Drivers/STM32F1xx_HAL_Driver/Src/stm32f1xx_hal_pcd.c ****     }
1180:Drivers/STM32F1xx_HAL_Driver/Src/stm32f1xx_hal_pcd.c ****     len32b = (len + 3U) / 4U;
1181:Drivers/STM32F1xx_HAL_Driver/Src/stm32f1xx_hal_pcd.c ****     
1182:Drivers/STM32F1xx_HAL_Driver/Src/stm32f1xx_hal_pcd.c ****     USB_WritePacket(USBx, ep->xfer_buff, epnum, len);
1183:Drivers/STM32F1xx_HAL_Driver/Src/stm32f1xx_hal_pcd.c ****     
1184:Drivers/STM32F1xx_HAL_Driver/Src/stm32f1xx_hal_pcd.c ****     ep->xfer_buff  += len;
1185:Drivers/STM32F1xx_HAL_Driver/Src/stm32f1xx_hal_pcd.c ****     ep->xfer_count += len;
1186:Drivers/STM32F1xx_HAL_Driver/Src/stm32f1xx_hal_pcd.c ****   }
1187:Drivers/STM32F1xx_HAL_Driver/Src/stm32f1xx_hal_pcd.c ****   
1188:Drivers/STM32F1xx_HAL_Driver/Src/stm32f1xx_hal_pcd.c ****   if(len <= 0)
1189:Drivers/STM32F1xx_HAL_Driver/Src/stm32f1xx_hal_pcd.c ****   {
1190:Drivers/STM32F1xx_HAL_Driver/Src/stm32f1xx_hal_pcd.c ****     fifoemptymsk = 0x01U << epnum;
1191:Drivers/STM32F1xx_HAL_Driver/Src/stm32f1xx_hal_pcd.c ****     USBx_DEVICE->DIEPEMPMSK &= ~fifoemptymsk;
1192:Drivers/STM32F1xx_HAL_Driver/Src/stm32f1xx_hal_pcd.c ****     
1193:Drivers/STM32F1xx_HAL_Driver/Src/stm32f1xx_hal_pcd.c ****   }
1194:Drivers/STM32F1xx_HAL_Driver/Src/stm32f1xx_hal_pcd.c ****   
1195:Drivers/STM32F1xx_HAL_Driver/Src/stm32f1xx_hal_pcd.c ****   return HAL_OK;
1196:Drivers/STM32F1xx_HAL_Driver/Src/stm32f1xx_hal_pcd.c **** }
1197:Drivers/STM32F1xx_HAL_Driver/Src/stm32f1xx_hal_pcd.c **** #endif /* USB_OTG_FS */
1198:Drivers/STM32F1xx_HAL_Driver/Src/stm32f1xx_hal_pcd.c **** 
1199:Drivers/STM32F1xx_HAL_Driver/Src/stm32f1xx_hal_pcd.c **** #if defined (USB)
1200:Drivers/STM32F1xx_HAL_Driver/Src/stm32f1xx_hal_pcd.c **** /**
1201:Drivers/STM32F1xx_HAL_Driver/Src/stm32f1xx_hal_pcd.c ****   * @brief  This function handles PCD Endpoint interrupt request.
1202:Drivers/STM32F1xx_HAL_Driver/Src/stm32f1xx_hal_pcd.c ****   * @param  hpcd: PCD handle
1203:Drivers/STM32F1xx_HAL_Driver/Src/stm32f1xx_hal_pcd.c ****   * @retval HAL status
1204:Drivers/STM32F1xx_HAL_Driver/Src/stm32f1xx_hal_pcd.c ****   */
1205:Drivers/STM32F1xx_HAL_Driver/Src/stm32f1xx_hal_pcd.c **** static HAL_StatusTypeDef PCD_EP_ISR_Handler(PCD_HandleTypeDef *hpcd)
1206:Drivers/STM32F1xx_HAL_Driver/Src/stm32f1xx_hal_pcd.c **** {
 1103              		.loc 1 1206 0
 1104              		.cfi_startproc
 1105              		@ args = 0, pretend = 0, frame = 8
 1106              		@ frame_needed = 0, uses_anonymous_args = 0
 1107              	.LVL115:
 1108 0000 70B5     		push	{r4, r5, r6, lr}
 1109              	.LCFI15:
 1110              		.cfi_def_cfa_offset 16
 1111              		.cfi_offset 4, -16
 1112              		.cfi_offset 5, -12
 1113              		.cfi_offset 6, -8
 1114              		.cfi_offset 14, -4
 1115 0002 82B0     		sub	sp, sp, #8
 1116              	.LCFI16:
 1117              		.cfi_def_cfa_offset 24
 1118 0004 0546     		mov	r5, r0
 1119              	.LVL116:
1207:Drivers/STM32F1xx_HAL_Driver/Src/stm32f1xx_hal_pcd.c ****   PCD_EPTypeDef *ep = NULL;
1208:Drivers/STM32F1xx_HAL_Driver/Src/stm32f1xx_hal_pcd.c ****   uint16_t count = 0;
1209:Drivers/STM32F1xx_HAL_Driver/Src/stm32f1xx_hal_pcd.c ****   uint8_t epindex = 0;
1210:Drivers/STM32F1xx_HAL_Driver/Src/stm32f1xx_hal_pcd.c ****   __IO uint16_t wIstr = 0;  
ARM GAS  /tmp/cc956sXB.s 			page 42


 1120              		.loc 1 1210 0
 1121 0006 0023     		movs	r3, #0
 1122 0008 ADF80630 		strh	r3, [sp, #6]	@ movhi
1211:Drivers/STM32F1xx_HAL_Driver/Src/stm32f1xx_hal_pcd.c ****   __IO uint16_t wEPVal = 0;
 1123              		.loc 1 1211 0
 1124 000c ADF80430 		strh	r3, [sp, #4]	@ movhi
1212:Drivers/STM32F1xx_HAL_Driver/Src/stm32f1xx_hal_pcd.c ****   
1213:Drivers/STM32F1xx_HAL_Driver/Src/stm32f1xx_hal_pcd.c ****   /* stay in loop while pending interrupts */
1214:Drivers/STM32F1xx_HAL_Driver/Src/stm32f1xx_hal_pcd.c ****   while (((wIstr = hpcd->Instance->ISTR) & USB_ISTR_CTR) != 0)
 1125              		.loc 1 1214 0
 1126 0010 95E1     		b	.L105
 1127              	.LVL117:
 1128              	.L133:
1215:Drivers/STM32F1xx_HAL_Driver/Src/stm32f1xx_hal_pcd.c ****   {
1216:Drivers/STM32F1xx_HAL_Driver/Src/stm32f1xx_hal_pcd.c ****     /* extract highest priority endpoint number */
1217:Drivers/STM32F1xx_HAL_Driver/Src/stm32f1xx_hal_pcd.c ****     epindex = (uint8_t)(wIstr & USB_ISTR_EP_ID);
1218:Drivers/STM32F1xx_HAL_Driver/Src/stm32f1xx_hal_pcd.c ****     
1219:Drivers/STM32F1xx_HAL_Driver/Src/stm32f1xx_hal_pcd.c ****     if (epindex == 0)
1220:Drivers/STM32F1xx_HAL_Driver/Src/stm32f1xx_hal_pcd.c ****     {
1221:Drivers/STM32F1xx_HAL_Driver/Src/stm32f1xx_hal_pcd.c ****       /* Decode and service control endpoint interrupt */
1222:Drivers/STM32F1xx_HAL_Driver/Src/stm32f1xx_hal_pcd.c ****       
1223:Drivers/STM32F1xx_HAL_Driver/Src/stm32f1xx_hal_pcd.c ****       /* DIR bit = origin of the interrupt */   
1224:Drivers/STM32F1xx_HAL_Driver/Src/stm32f1xx_hal_pcd.c ****       if ((wIstr & USB_ISTR_DIR) == 0)
1225:Drivers/STM32F1xx_HAL_Driver/Src/stm32f1xx_hal_pcd.c ****       {
1226:Drivers/STM32F1xx_HAL_Driver/Src/stm32f1xx_hal_pcd.c ****         /* DIR = 0 */
1227:Drivers/STM32F1xx_HAL_Driver/Src/stm32f1xx_hal_pcd.c ****         
1228:Drivers/STM32F1xx_HAL_Driver/Src/stm32f1xx_hal_pcd.c ****         /* DIR = 0      => IN  int */
1229:Drivers/STM32F1xx_HAL_Driver/Src/stm32f1xx_hal_pcd.c ****         /* DIR = 0 implies that (EP_CTR_TX = 1) always  */
1230:Drivers/STM32F1xx_HAL_Driver/Src/stm32f1xx_hal_pcd.c ****         PCD_CLEAR_TX_EP_CTR(hpcd->Instance, PCD_ENDP0);
 1129              		.loc 1 1230 0
 1130 0012 0388     		ldrh	r3, [r0]
 1131 0014 9BB2     		uxth	r3, r3
 1132 0016 23F4E143 		bic	r3, r3, #28800
 1133 001a 23F07003 		bic	r3, r3, #112
 1134 001e 9BB2     		uxth	r3, r3
 1135 0020 0380     		strh	r3, [r0]	@ movhi
 1136              	.LVL118:
1231:Drivers/STM32F1xx_HAL_Driver/Src/stm32f1xx_hal_pcd.c ****         ep = &hpcd->IN_ep[0];
1232:Drivers/STM32F1xx_HAL_Driver/Src/stm32f1xx_hal_pcd.c ****         
1233:Drivers/STM32F1xx_HAL_Driver/Src/stm32f1xx_hal_pcd.c ****         ep->xfer_count = PCD_GET_EP_TX_CNT(hpcd->Instance, ep->num);
 1137              		.loc 1 1233 0
 1138 0022 2A68     		ldr	r2, [r5]
 1139 0024 B2F85030 		ldrh	r3, [r2, #80]
 1140 0028 9BB2     		uxth	r3, r3
 1141 002a 95F82810 		ldrb	r1, [r5, #40]	@ zero_extendqisi2
 1142 002e 03EBC103 		add	r3, r3, r1, lsl #3
 1143 0032 0233     		adds	r3, r3, #2
 1144 0034 02EB4303 		add	r3, r2, r3, lsl #1
 1145 0038 D3F80034 		ldr	r3, [r3, #1024]
 1146 003c C3F30903 		ubfx	r3, r3, #0, #10
 1147 0040 6B64     		str	r3, [r5, #68]
1234:Drivers/STM32F1xx_HAL_Driver/Src/stm32f1xx_hal_pcd.c ****         ep->xfer_buff += ep->xfer_count;
 1148              		.loc 1 1234 0
 1149 0042 EA6B     		ldr	r2, [r5, #60]
 1150 0044 1344     		add	r3, r3, r2
 1151 0046 EB63     		str	r3, [r5, #60]
1235:Drivers/STM32F1xx_HAL_Driver/Src/stm32f1xx_hal_pcd.c ****  
ARM GAS  /tmp/cc956sXB.s 			page 43


1236:Drivers/STM32F1xx_HAL_Driver/Src/stm32f1xx_hal_pcd.c ****         /* TX COMPLETE */
1237:Drivers/STM32F1xx_HAL_Driver/Src/stm32f1xx_hal_pcd.c ****         HAL_PCD_DataInStageCallback(hpcd, 0U);
 1152              		.loc 1 1237 0
 1153 0048 0021     		movs	r1, #0
 1154 004a 2846     		mov	r0, r5
 1155 004c FFF7FEFF 		bl	HAL_PCD_DataInStageCallback
 1156              	.LVL119:
1238:Drivers/STM32F1xx_HAL_Driver/Src/stm32f1xx_hal_pcd.c ****         
1239:Drivers/STM32F1xx_HAL_Driver/Src/stm32f1xx_hal_pcd.c ****         
1240:Drivers/STM32F1xx_HAL_Driver/Src/stm32f1xx_hal_pcd.c ****         if((hpcd->USB_Address > 0U)&& ( ep->xfer_len == 0U))
 1157              		.loc 1 1240 0
 1158 0050 95F82430 		ldrb	r3, [r5, #36]	@ zero_extendqisi2
 1159 0054 002B     		cmp	r3, #0
 1160 0056 00F07281 		beq	.L105
 1161              		.loc 1 1240 0 is_stmt 0 discriminator 1
 1162 005a 2B6C     		ldr	r3, [r5, #64]
 1163 005c 002B     		cmp	r3, #0
 1164 005e 40F06E81 		bne	.L105
1241:Drivers/STM32F1xx_HAL_Driver/Src/stm32f1xx_hal_pcd.c ****         {
1242:Drivers/STM32F1xx_HAL_Driver/Src/stm32f1xx_hal_pcd.c ****           hpcd->Instance->DADDR = (hpcd->USB_Address | USB_DADDR_EF);
 1165              		.loc 1 1242 0 is_stmt 1
 1166 0062 2A68     		ldr	r2, [r5]
 1167 0064 95F82430 		ldrb	r3, [r5, #36]	@ zero_extendqisi2
 1168 0068 43F08003 		orr	r3, r3, #128
 1169 006c A2F84C30 		strh	r3, [r2, #76]	@ movhi
1243:Drivers/STM32F1xx_HAL_Driver/Src/stm32f1xx_hal_pcd.c ****           hpcd->USB_Address = 0U;
 1170              		.loc 1 1243 0
 1171 0070 0023     		movs	r3, #0
 1172 0072 85F82430 		strb	r3, [r5, #36]
 1173 0076 62E1     		b	.L105
 1174              	.LVL120:
 1175              	.L134:
1244:Drivers/STM32F1xx_HAL_Driver/Src/stm32f1xx_hal_pcd.c ****         }
1245:Drivers/STM32F1xx_HAL_Driver/Src/stm32f1xx_hal_pcd.c ****         
1246:Drivers/STM32F1xx_HAL_Driver/Src/stm32f1xx_hal_pcd.c ****       }
1247:Drivers/STM32F1xx_HAL_Driver/Src/stm32f1xx_hal_pcd.c ****       else
1248:Drivers/STM32F1xx_HAL_Driver/Src/stm32f1xx_hal_pcd.c ****       {
1249:Drivers/STM32F1xx_HAL_Driver/Src/stm32f1xx_hal_pcd.c ****         /* DIR = 1 */
1250:Drivers/STM32F1xx_HAL_Driver/Src/stm32f1xx_hal_pcd.c ****         
1251:Drivers/STM32F1xx_HAL_Driver/Src/stm32f1xx_hal_pcd.c ****         /* DIR = 1 & CTR_RX       => SETUP or OUT int */
1252:Drivers/STM32F1xx_HAL_Driver/Src/stm32f1xx_hal_pcd.c ****         /* DIR = 1 & (CTR_TX | CTR_RX) => 2 int pending */
1253:Drivers/STM32F1xx_HAL_Driver/Src/stm32f1xx_hal_pcd.c ****         ep = &hpcd->OUT_ep[0U];
1254:Drivers/STM32F1xx_HAL_Driver/Src/stm32f1xx_hal_pcd.c ****         wEPVal = PCD_GET_ENDPOINT(hpcd->Instance, PCD_ENDP0);
1255:Drivers/STM32F1xx_HAL_Driver/Src/stm32f1xx_hal_pcd.c ****         
1256:Drivers/STM32F1xx_HAL_Driver/Src/stm32f1xx_hal_pcd.c ****         if ((wEPVal & USB_EP_SETUP) != 0U)
1257:Drivers/STM32F1xx_HAL_Driver/Src/stm32f1xx_hal_pcd.c ****         {
1258:Drivers/STM32F1xx_HAL_Driver/Src/stm32f1xx_hal_pcd.c ****           /* Get SETUP Packet*/
1259:Drivers/STM32F1xx_HAL_Driver/Src/stm32f1xx_hal_pcd.c ****           ep->xfer_count = PCD_GET_EP_RX_CNT(hpcd->Instance, ep->num);
 1176              		.loc 1 1259 0
 1177 0078 B0F85030 		ldrh	r3, [r0, #80]
 1178 007c 9BB2     		uxth	r3, r3
 1179 007e 95F82822 		ldrb	r2, [r5, #552]	@ zero_extendqisi2
 1180 0082 03EBC203 		add	r3, r3, r2, lsl #3
 1181 0086 0633     		adds	r3, r3, #6
 1182 0088 00EB4303 		add	r3, r0, r3, lsl #1
 1183 008c D3F80034 		ldr	r3, [r3, #1024]
 1184 0090 C3F30903 		ubfx	r3, r3, #0, #10
ARM GAS  /tmp/cc956sXB.s 			page 44


 1185 0094 C5F84432 		str	r3, [r5, #580]
1260:Drivers/STM32F1xx_HAL_Driver/Src/stm32f1xx_hal_pcd.c ****           USB_ReadPMA(hpcd->Instance, (uint8_t*)hpcd->Setup ,ep->pmaadress , ep->xfer_count);      
 1186              		.loc 1 1260 0
 1187 0098 B5F82C22 		ldrh	r2, [r5, #556]
 1188 009c 05F22C41 		addw	r1, r5, #1068
 1189 00a0 FFF7FEFF 		bl	USB_ReadPMA
 1190              	.LVL121:
1261:Drivers/STM32F1xx_HAL_Driver/Src/stm32f1xx_hal_pcd.c ****           /* SETUP bit kept frozen while CTR_RX = 1*/ 
1262:Drivers/STM32F1xx_HAL_Driver/Src/stm32f1xx_hal_pcd.c ****           PCD_CLEAR_RX_EP_CTR(hpcd->Instance, PCD_ENDP0); 
 1191              		.loc 1 1262 0
 1192 00a4 2A68     		ldr	r2, [r5]
 1193 00a6 1388     		ldrh	r3, [r2]
 1194 00a8 23F07003 		bic	r3, r3, #112
 1195 00ac 1B05     		lsls	r3, r3, #20
 1196 00ae 1B0D     		lsrs	r3, r3, #20
 1197 00b0 1380     		strh	r3, [r2]	@ movhi
1263:Drivers/STM32F1xx_HAL_Driver/Src/stm32f1xx_hal_pcd.c ****           
1264:Drivers/STM32F1xx_HAL_Driver/Src/stm32f1xx_hal_pcd.c ****           /* Process SETUP Packet*/
1265:Drivers/STM32F1xx_HAL_Driver/Src/stm32f1xx_hal_pcd.c ****           HAL_PCD_SetupStageCallback(hpcd);
 1198              		.loc 1 1265 0
 1199 00b2 2846     		mov	r0, r5
 1200 00b4 FFF7FEFF 		bl	HAL_PCD_SetupStageCallback
 1201              	.LVL122:
 1202 00b8 41E1     		b	.L105
 1203              	.L135:
1266:Drivers/STM32F1xx_HAL_Driver/Src/stm32f1xx_hal_pcd.c ****         }
1267:Drivers/STM32F1xx_HAL_Driver/Src/stm32f1xx_hal_pcd.c ****         
1268:Drivers/STM32F1xx_HAL_Driver/Src/stm32f1xx_hal_pcd.c ****         else if ((wEPVal & USB_EP_CTR_RX) != 0U)
1269:Drivers/STM32F1xx_HAL_Driver/Src/stm32f1xx_hal_pcd.c ****         {
1270:Drivers/STM32F1xx_HAL_Driver/Src/stm32f1xx_hal_pcd.c ****           PCD_CLEAR_RX_EP_CTR(hpcd->Instance, PCD_ENDP0);
1271:Drivers/STM32F1xx_HAL_Driver/Src/stm32f1xx_hal_pcd.c ****           /* Get Control Data OUT Packet*/
1272:Drivers/STM32F1xx_HAL_Driver/Src/stm32f1xx_hal_pcd.c ****           ep->xfer_count = PCD_GET_EP_RX_CNT(hpcd->Instance, ep->num);
1273:Drivers/STM32F1xx_HAL_Driver/Src/stm32f1xx_hal_pcd.c ****           
1274:Drivers/STM32F1xx_HAL_Driver/Src/stm32f1xx_hal_pcd.c ****           if (ep->xfer_count != 0U)
1275:Drivers/STM32F1xx_HAL_Driver/Src/stm32f1xx_hal_pcd.c ****           {
1276:Drivers/STM32F1xx_HAL_Driver/Src/stm32f1xx_hal_pcd.c ****             USB_ReadPMA(hpcd->Instance, ep->xfer_buff, ep->pmaadress, ep->xfer_count);
 1204              		.loc 1 1276 0
 1205 00ba B5F82C22 		ldrh	r2, [r5, #556]
 1206 00be D5F83C12 		ldr	r1, [r5, #572]
 1207 00c2 FFF7FEFF 		bl	USB_ReadPMA
 1208              	.LVL123:
1277:Drivers/STM32F1xx_HAL_Driver/Src/stm32f1xx_hal_pcd.c ****             ep->xfer_buff+=ep->xfer_count;
 1209              		.loc 1 1277 0
 1210 00c6 D5F84422 		ldr	r2, [r5, #580]
 1211 00ca D5F83C32 		ldr	r3, [r5, #572]
 1212 00ce 1344     		add	r3, r3, r2
 1213 00d0 C5F83C32 		str	r3, [r5, #572]
 1214 00d4 72E1     		b	.L110
 1215              	.LVL124:
 1216              	.L111:
 1217              	.LBB2:
 1218              	.LBB3:
1278:Drivers/STM32F1xx_HAL_Driver/Src/stm32f1xx_hal_pcd.c ****           }
1279:Drivers/STM32F1xx_HAL_Driver/Src/stm32f1xx_hal_pcd.c ****           
1280:Drivers/STM32F1xx_HAL_Driver/Src/stm32f1xx_hal_pcd.c ****           /* Process Control Data OUT Packet*/
1281:Drivers/STM32F1xx_HAL_Driver/Src/stm32f1xx_hal_pcd.c ****            HAL_PCD_DataOutStageCallback(hpcd, 0U);
1282:Drivers/STM32F1xx_HAL_Driver/Src/stm32f1xx_hal_pcd.c ****           
ARM GAS  /tmp/cc956sXB.s 			page 45


1283:Drivers/STM32F1xx_HAL_Driver/Src/stm32f1xx_hal_pcd.c ****           PCD_SET_EP_RX_CNT(hpcd->Instance, PCD_ENDP0, ep->maxpacket);
 1219              		.loc 1 1283 0 discriminator 2
 1220 00d6 C1F34F02 		ubfx	r2, r1, #1, #16
 1221              	.LVL125:
 1222 00da 11F0010F 		tst	r1, #1
 1223 00de 01D0     		beq	.L114
 1224              		.loc 1 1283 0 is_stmt 0 discriminator 6
 1225 00e0 0132     		adds	r2, r2, #1
 1226              	.LVL126:
 1227 00e2 92B2     		uxth	r2, r2
 1228              	.LVL127:
 1229              	.L114:
 1230              		.loc 1 1283 0 discriminator 8
 1231 00e4 9202     		lsls	r2, r2, #10
 1232              	.LVL128:
 1233 00e6 92B2     		uxth	r2, r2
 1234 00e8 C3F80024 		str	r2, [r3, #1024]
 1235 00ec 84E1     		b	.L113
 1236              	.LVL129:
 1237              	.L106:
 1238              	.LBE3:
 1239              	.LBE2:
1284:Drivers/STM32F1xx_HAL_Driver/Src/stm32f1xx_hal_pcd.c ****           PCD_SET_EP_RX_STATUS(hpcd->Instance, PCD_ENDP0, USB_EP_RX_VALID);
1285:Drivers/STM32F1xx_HAL_Driver/Src/stm32f1xx_hal_pcd.c ****         }
1286:Drivers/STM32F1xx_HAL_Driver/Src/stm32f1xx_hal_pcd.c ****       }
1287:Drivers/STM32F1xx_HAL_Driver/Src/stm32f1xx_hal_pcd.c ****     }
1288:Drivers/STM32F1xx_HAL_Driver/Src/stm32f1xx_hal_pcd.c ****     else
1289:Drivers/STM32F1xx_HAL_Driver/Src/stm32f1xx_hal_pcd.c ****     {
1290:Drivers/STM32F1xx_HAL_Driver/Src/stm32f1xx_hal_pcd.c ****       /* Decode and service non control endpoints interrupt  */
1291:Drivers/STM32F1xx_HAL_Driver/Src/stm32f1xx_hal_pcd.c **** 	  
1292:Drivers/STM32F1xx_HAL_Driver/Src/stm32f1xx_hal_pcd.c ****       /* process related endpoint register */
1293:Drivers/STM32F1xx_HAL_Driver/Src/stm32f1xx_hal_pcd.c ****       wEPVal = PCD_GET_ENDPOINT(hpcd->Instance, epindex);
 1240              		.loc 1 1293 0 is_stmt 1
 1241 00ee 30F82430 		ldrh	r3, [r0, r4, lsl #2]
 1242 00f2 9BB2     		uxth	r3, r3
 1243 00f4 ADF80430 		strh	r3, [sp, #4]	@ movhi
1294:Drivers/STM32F1xx_HAL_Driver/Src/stm32f1xx_hal_pcd.c ****       if ((wEPVal & USB_EP_CTR_RX) != 0U)
 1244              		.loc 1 1294 0
 1245 00f8 BDF80430 		ldrh	r3, [sp, #4]
 1246 00fc 13F4004F 		tst	r3, #32768
 1247 0100 36D1     		bne	.L129
 1248              	.L115:
1295:Drivers/STM32F1xx_HAL_Driver/Src/stm32f1xx_hal_pcd.c ****       {  
1296:Drivers/STM32F1xx_HAL_Driver/Src/stm32f1xx_hal_pcd.c ****         /* clear int flag */
1297:Drivers/STM32F1xx_HAL_Driver/Src/stm32f1xx_hal_pcd.c ****         PCD_CLEAR_RX_EP_CTR(hpcd->Instance, epindex);
1298:Drivers/STM32F1xx_HAL_Driver/Src/stm32f1xx_hal_pcd.c ****         ep = &hpcd->OUT_ep[epindex];
1299:Drivers/STM32F1xx_HAL_Driver/Src/stm32f1xx_hal_pcd.c ****         
1300:Drivers/STM32F1xx_HAL_Driver/Src/stm32f1xx_hal_pcd.c ****         /* OUT double Buffering*/
1301:Drivers/STM32F1xx_HAL_Driver/Src/stm32f1xx_hal_pcd.c ****         if (ep->doublebuffer == 0U)
1302:Drivers/STM32F1xx_HAL_Driver/Src/stm32f1xx_hal_pcd.c ****         {
1303:Drivers/STM32F1xx_HAL_Driver/Src/stm32f1xx_hal_pcd.c ****           count = PCD_GET_EP_RX_CNT(hpcd->Instance, ep->num);
1304:Drivers/STM32F1xx_HAL_Driver/Src/stm32f1xx_hal_pcd.c ****           if (count != 0U)
1305:Drivers/STM32F1xx_HAL_Driver/Src/stm32f1xx_hal_pcd.c ****           {
1306:Drivers/STM32F1xx_HAL_Driver/Src/stm32f1xx_hal_pcd.c ****             USB_ReadPMA(hpcd->Instance, ep->xfer_buff, ep->pmaadress, count);
1307:Drivers/STM32F1xx_HAL_Driver/Src/stm32f1xx_hal_pcd.c ****           }
1308:Drivers/STM32F1xx_HAL_Driver/Src/stm32f1xx_hal_pcd.c ****         }
1309:Drivers/STM32F1xx_HAL_Driver/Src/stm32f1xx_hal_pcd.c ****         else
ARM GAS  /tmp/cc956sXB.s 			page 46


1310:Drivers/STM32F1xx_HAL_Driver/Src/stm32f1xx_hal_pcd.c ****         {
1311:Drivers/STM32F1xx_HAL_Driver/Src/stm32f1xx_hal_pcd.c ****           if (PCD_GET_ENDPOINT(hpcd->Instance, ep->num) & USB_EP_DTOG_RX)
1312:Drivers/STM32F1xx_HAL_Driver/Src/stm32f1xx_hal_pcd.c ****           {
1313:Drivers/STM32F1xx_HAL_Driver/Src/stm32f1xx_hal_pcd.c ****             /*read from endpoint BUF0Addr buffer*/
1314:Drivers/STM32F1xx_HAL_Driver/Src/stm32f1xx_hal_pcd.c ****             count = PCD_GET_EP_DBUF0_CNT(hpcd->Instance, ep->num);
1315:Drivers/STM32F1xx_HAL_Driver/Src/stm32f1xx_hal_pcd.c ****             if (count != 0U)
1316:Drivers/STM32F1xx_HAL_Driver/Src/stm32f1xx_hal_pcd.c ****             {
1317:Drivers/STM32F1xx_HAL_Driver/Src/stm32f1xx_hal_pcd.c ****               USB_ReadPMA(hpcd->Instance, ep->xfer_buff, ep->pmaaddr0, count);
1318:Drivers/STM32F1xx_HAL_Driver/Src/stm32f1xx_hal_pcd.c ****             }
1319:Drivers/STM32F1xx_HAL_Driver/Src/stm32f1xx_hal_pcd.c ****           }
1320:Drivers/STM32F1xx_HAL_Driver/Src/stm32f1xx_hal_pcd.c ****           else
1321:Drivers/STM32F1xx_HAL_Driver/Src/stm32f1xx_hal_pcd.c ****           {
1322:Drivers/STM32F1xx_HAL_Driver/Src/stm32f1xx_hal_pcd.c ****             /*read from endpoint BUF1Addr buffer*/
1323:Drivers/STM32F1xx_HAL_Driver/Src/stm32f1xx_hal_pcd.c ****             count = PCD_GET_EP_DBUF1_CNT(hpcd->Instance, ep->num);
1324:Drivers/STM32F1xx_HAL_Driver/Src/stm32f1xx_hal_pcd.c ****             if (count != 0U)
1325:Drivers/STM32F1xx_HAL_Driver/Src/stm32f1xx_hal_pcd.c ****             {
1326:Drivers/STM32F1xx_HAL_Driver/Src/stm32f1xx_hal_pcd.c ****               USB_ReadPMA(hpcd->Instance, ep->xfer_buff, ep->pmaaddr1, count);
1327:Drivers/STM32F1xx_HAL_Driver/Src/stm32f1xx_hal_pcd.c ****             }
1328:Drivers/STM32F1xx_HAL_Driver/Src/stm32f1xx_hal_pcd.c ****           }
1329:Drivers/STM32F1xx_HAL_Driver/Src/stm32f1xx_hal_pcd.c ****           PCD_FreeUserBuffer(hpcd->Instance, ep->num, PCD_EP_DBUF_OUT);  
1330:Drivers/STM32F1xx_HAL_Driver/Src/stm32f1xx_hal_pcd.c ****         }
1331:Drivers/STM32F1xx_HAL_Driver/Src/stm32f1xx_hal_pcd.c ****         /*multi-packet on the NON control OUT endpoint*/
1332:Drivers/STM32F1xx_HAL_Driver/Src/stm32f1xx_hal_pcd.c ****         ep->xfer_count+=count;
1333:Drivers/STM32F1xx_HAL_Driver/Src/stm32f1xx_hal_pcd.c ****         ep->xfer_buff+=count;
1334:Drivers/STM32F1xx_HAL_Driver/Src/stm32f1xx_hal_pcd.c ****        
1335:Drivers/STM32F1xx_HAL_Driver/Src/stm32f1xx_hal_pcd.c ****         if ((ep->xfer_len == 0U) || (count < ep->maxpacket))
1336:Drivers/STM32F1xx_HAL_Driver/Src/stm32f1xx_hal_pcd.c ****         {
1337:Drivers/STM32F1xx_HAL_Driver/Src/stm32f1xx_hal_pcd.c ****           /* RX COMPLETE */
1338:Drivers/STM32F1xx_HAL_Driver/Src/stm32f1xx_hal_pcd.c ****           HAL_PCD_DataOutStageCallback(hpcd, ep->num);
1339:Drivers/STM32F1xx_HAL_Driver/Src/stm32f1xx_hal_pcd.c ****         }
1340:Drivers/STM32F1xx_HAL_Driver/Src/stm32f1xx_hal_pcd.c ****         else
1341:Drivers/STM32F1xx_HAL_Driver/Src/stm32f1xx_hal_pcd.c ****         {
1342:Drivers/STM32F1xx_HAL_Driver/Src/stm32f1xx_hal_pcd.c ****           HAL_PCD_EP_Receive(hpcd, ep->num, ep->xfer_buff, ep->xfer_len);
1343:Drivers/STM32F1xx_HAL_Driver/Src/stm32f1xx_hal_pcd.c ****         }
1344:Drivers/STM32F1xx_HAL_Driver/Src/stm32f1xx_hal_pcd.c ****         
1345:Drivers/STM32F1xx_HAL_Driver/Src/stm32f1xx_hal_pcd.c ****       } /* if((wEPVal & EP_CTR_RX) */
1346:Drivers/STM32F1xx_HAL_Driver/Src/stm32f1xx_hal_pcd.c ****       
1347:Drivers/STM32F1xx_HAL_Driver/Src/stm32f1xx_hal_pcd.c ****       if ((wEPVal & USB_EP_CTR_TX) != 0U)
 1249              		.loc 1 1347 0
 1250 0102 BDF80430 		ldrh	r3, [sp, #4]
 1251 0106 13F0800F 		tst	r3, #128
 1252 010a 00F01881 		beq	.L105
 1253              	.LVL130:
1348:Drivers/STM32F1xx_HAL_Driver/Src/stm32f1xx_hal_pcd.c ****       {
1349:Drivers/STM32F1xx_HAL_Driver/Src/stm32f1xx_hal_pcd.c ****         ep = &hpcd->IN_ep[epindex];
1350:Drivers/STM32F1xx_HAL_Driver/Src/stm32f1xx_hal_pcd.c ****         
1351:Drivers/STM32F1xx_HAL_Driver/Src/stm32f1xx_hal_pcd.c ****         /* clear int flag */
1352:Drivers/STM32F1xx_HAL_Driver/Src/stm32f1xx_hal_pcd.c ****         PCD_CLEAR_TX_EP_CTR(hpcd->Instance, epindex);
 1254              		.loc 1 1352 0
 1255 010e 2A68     		ldr	r2, [r5]
 1256 0110 32F82430 		ldrh	r3, [r2, r4, lsl #2]
 1257 0114 9BB2     		uxth	r3, r3
 1258 0116 23F4E143 		bic	r3, r3, #28800
 1259 011a 23F07003 		bic	r3, r3, #112
 1260 011e 9BB2     		uxth	r3, r3
 1261 0120 22F82430 		strh	r3, [r2, r4, lsl #2]	@ movhi
1353:Drivers/STM32F1xx_HAL_Driver/Src/stm32f1xx_hal_pcd.c ****         
ARM GAS  /tmp/cc956sXB.s 			page 47


1354:Drivers/STM32F1xx_HAL_Driver/Src/stm32f1xx_hal_pcd.c ****         /* IN double Buffering*/
1355:Drivers/STM32F1xx_HAL_Driver/Src/stm32f1xx_hal_pcd.c ****         if (ep->doublebuffer == 0U)
 1262              		.loc 1 1355 0
 1263 0124 05EB4413 		add	r3, r5, r4, lsl #5
 1264 0128 93F83230 		ldrb	r3, [r3, #50]	@ zero_extendqisi2
 1265 012c 002B     		cmp	r3, #0
 1266 012e 40F0B680 		bne	.L122
1356:Drivers/STM32F1xx_HAL_Driver/Src/stm32f1xx_hal_pcd.c ****         {
1357:Drivers/STM32F1xx_HAL_Driver/Src/stm32f1xx_hal_pcd.c ****           ep->xfer_count = PCD_GET_EP_TX_CNT(hpcd->Instance, ep->num);
 1267              		.loc 1 1357 0
 1268 0132 2868     		ldr	r0, [r5]
 1269 0134 B0F85030 		ldrh	r3, [r0, #80]
 1270 0138 9BB2     		uxth	r3, r3
 1271 013a 05EB4412 		add	r2, r5, r4, lsl #5
 1272 013e 92F82820 		ldrb	r2, [r2, #40]	@ zero_extendqisi2
 1273 0142 03EBC203 		add	r3, r3, r2, lsl #3
 1274 0146 0233     		adds	r3, r3, #2
 1275 0148 00EB4303 		add	r3, r0, r3, lsl #1
 1276 014c D3F80034 		ldr	r3, [r3, #1024]
 1277 0150 C3F30903 		ubfx	r3, r3, #0, #10
 1278 0154 A21C     		adds	r2, r4, #2
 1279 0156 05EB4212 		add	r2, r5, r2, lsl #5
 1280 015a 5360     		str	r3, [r2, #4]
1358:Drivers/STM32F1xx_HAL_Driver/Src/stm32f1xx_hal_pcd.c ****           if (ep->xfer_count != 0U)
 1281              		.loc 1 1358 0
 1282 015c 002B     		cmp	r3, #0
 1283 015e 00F0CD80 		beq	.L123
1359:Drivers/STM32F1xx_HAL_Driver/Src/stm32f1xx_hal_pcd.c ****           {
1360:Drivers/STM32F1xx_HAL_Driver/Src/stm32f1xx_hal_pcd.c ****             USB_WritePMA(hpcd->Instance, ep->xfer_buff, ep->pmaadress, ep->xfer_count);
 1284              		.loc 1 1360 0
 1285 0162 05EB4411 		add	r1, r5, r4, lsl #5
 1286 0166 8A8D     		ldrh	r2, [r1, #44]
 1287 0168 C96B     		ldr	r1, [r1, #60]
 1288 016a FFF7FEFF 		bl	USB_WritePMA
 1289              	.LVL131:
 1290 016e C5E0     		b	.L123
 1291              	.LVL132:
 1292              	.L129:
1297:Drivers/STM32F1xx_HAL_Driver/Src/stm32f1xx_hal_pcd.c ****         ep = &hpcd->OUT_ep[epindex];
 1293              		.loc 1 1297 0
 1294 0170 30F82430 		ldrh	r3, [r0, r4, lsl #2]
 1295 0174 23F07003 		bic	r3, r3, #112
 1296 0178 1B05     		lsls	r3, r3, #20
 1297 017a 1B0D     		lsrs	r3, r3, #20
 1298 017c 20F82430 		strh	r3, [r0, r4, lsl #2]	@ movhi
 1299              	.LVL133:
1301:Drivers/STM32F1xx_HAL_Driver/Src/stm32f1xx_hal_pcd.c ****         {
 1300              		.loc 1 1301 0
 1301 0180 05EB4413 		add	r3, r5, r4, lsl #5
 1302 0184 93F83232 		ldrb	r3, [r3, #562]	@ zero_extendqisi2
 1303 0188 DBB9     		cbnz	r3, .L116
1303:Drivers/STM32F1xx_HAL_Driver/Src/stm32f1xx_hal_pcd.c ****           if (count != 0U)
 1304              		.loc 1 1303 0
 1305 018a 2868     		ldr	r0, [r5]
 1306 018c B0F85030 		ldrh	r3, [r0, #80]
 1307 0190 9BB2     		uxth	r3, r3
 1308 0192 05EB4412 		add	r2, r5, r4, lsl #5
ARM GAS  /tmp/cc956sXB.s 			page 48


 1309 0196 92F82822 		ldrb	r2, [r2, #552]	@ zero_extendqisi2
 1310 019a 03EBC203 		add	r3, r3, r2, lsl #3
 1311 019e 0633     		adds	r3, r3, #6
 1312 01a0 00EB4303 		add	r3, r0, r3, lsl #1
 1313 01a4 B3F80064 		ldrh	r6, [r3, #1024]
 1314 01a8 C6F30906 		ubfx	r6, r6, #0, #10
 1315              	.LVL134:
1304:Drivers/STM32F1xx_HAL_Driver/Src/stm32f1xx_hal_pcd.c ****           {
 1316              		.loc 1 1304 0
 1317 01ac 8EB3     		cbz	r6, .L117
1306:Drivers/STM32F1xx_HAL_Driver/Src/stm32f1xx_hal_pcd.c ****           }
 1318              		.loc 1 1306 0
 1319 01ae 05EB4411 		add	r1, r5, r4, lsl #5
 1320 01b2 3346     		mov	r3, r6
 1321 01b4 B1F82C22 		ldrh	r2, [r1, #556]
 1322 01b8 D1F83C12 		ldr	r1, [r1, #572]
 1323 01bc FFF7FEFF 		bl	USB_ReadPMA
 1324              	.LVL135:
 1325 01c0 27E0     		b	.L117
 1326              	.LVL136:
 1327              	.L116:
1311:Drivers/STM32F1xx_HAL_Driver/Src/stm32f1xx_hal_pcd.c ****           {
 1328              		.loc 1 1311 0
 1329 01c2 2868     		ldr	r0, [r5]
 1330 01c4 05EB4413 		add	r3, r5, r4, lsl #5
 1331 01c8 93F82822 		ldrb	r2, [r3, #552]	@ zero_extendqisi2
 1332 01cc 30F82230 		ldrh	r3, [r0, r2, lsl #2]
 1333 01d0 13F4804F 		tst	r3, #16384
 1334 01d4 43D0     		beq	.L118
1314:Drivers/STM32F1xx_HAL_Driver/Src/stm32f1xx_hal_pcd.c ****             if (count != 0U)
 1335              		.loc 1 1314 0
 1336 01d6 B0F85030 		ldrh	r3, [r0, #80]
 1337 01da 9BB2     		uxth	r3, r3
 1338 01dc 03EBC203 		add	r3, r3, r2, lsl #3
 1339 01e0 0233     		adds	r3, r3, #2
 1340 01e2 00EB4303 		add	r3, r0, r3, lsl #1
 1341 01e6 B3F80064 		ldrh	r6, [r3, #1024]
 1342 01ea C6F30906 		ubfx	r6, r6, #0, #10
 1343              	.LVL137:
1315:Drivers/STM32F1xx_HAL_Driver/Src/stm32f1xx_hal_pcd.c ****             {
 1344              		.loc 1 1315 0
 1345 01ee 66BB     		cbnz	r6, .L130
 1346              	.L119:
1329:Drivers/STM32F1xx_HAL_Driver/Src/stm32f1xx_hal_pcd.c ****         }
 1347              		.loc 1 1329 0 discriminator 1
 1348 01f0 2A68     		ldr	r2, [r5]
 1349 01f2 05EB4413 		add	r3, r5, r4, lsl #5
 1350 01f6 93F82812 		ldrb	r1, [r3, #552]	@ zero_extendqisi2
 1351 01fa 32F82130 		ldrh	r3, [r2, r1, lsl #2]
 1352 01fe 23F0F003 		bic	r3, r3, #240
 1353 0202 1B05     		lsls	r3, r3, #20
 1354 0204 1B0D     		lsrs	r3, r3, #20
 1355 0206 43F40043 		orr	r3, r3, #32768
 1356 020a 43F0C003 		orr	r3, r3, #192
 1357 020e 22F82130 		strh	r3, [r2, r1, lsl #2]	@ movhi
 1358              	.L117:
1332:Drivers/STM32F1xx_HAL_Driver/Src/stm32f1xx_hal_pcd.c ****         ep->xfer_buff+=count;
ARM GAS  /tmp/cc956sXB.s 			page 49


 1359              		.loc 1 1332 0
 1360 0212 04F11203 		add	r3, r4, #18
 1361 0216 5B01     		lsls	r3, r3, #5
 1362 0218 E918     		adds	r1, r5, r3
 1363 021a 4A68     		ldr	r2, [r1, #4]
 1364 021c 3244     		add	r2, r2, r6
 1365 021e 4A60     		str	r2, [r1, #4]
1333:Drivers/STM32F1xx_HAL_Driver/Src/stm32f1xx_hal_pcd.c ****        
 1366              		.loc 1 1333 0
 1367 0220 05EB4411 		add	r1, r5, r4, lsl #5
 1368 0224 D1F83C22 		ldr	r2, [r1, #572]
 1369 0228 3244     		add	r2, r2, r6
 1370 022a C1F83C22 		str	r2, [r1, #572]
1335:Drivers/STM32F1xx_HAL_Driver/Src/stm32f1xx_hal_pcd.c ****         {
 1371              		.loc 1 1335 0
 1372 022e EB58     		ldr	r3, [r5, r3]
 1373 0230 1BB1     		cbz	r3, .L120
1335:Drivers/STM32F1xx_HAL_Driver/Src/stm32f1xx_hal_pcd.c ****         {
 1374              		.loc 1 1335 0 is_stmt 0 discriminator 1
 1375 0232 D1F83812 		ldr	r1, [r1, #568]
 1376 0236 8E42     		cmp	r6, r1
 1377 0238 29D2     		bcs	.L121
 1378              	.L120:
1338:Drivers/STM32F1xx_HAL_Driver/Src/stm32f1xx_hal_pcd.c ****         }
 1379              		.loc 1 1338 0 is_stmt 1
 1380 023a 05EB4413 		add	r3, r5, r4, lsl #5
 1381 023e 93F82812 		ldrb	r1, [r3, #552]	@ zero_extendqisi2
 1382 0242 2846     		mov	r0, r5
 1383 0244 FFF7FEFF 		bl	HAL_PCD_DataOutStageCallback
 1384              	.LVL138:
 1385 0248 5BE7     		b	.L115
 1386              	.L130:
1317:Drivers/STM32F1xx_HAL_Driver/Src/stm32f1xx_hal_pcd.c ****             }
 1387              		.loc 1 1317 0
 1388 024a 05EB4411 		add	r1, r5, r4, lsl #5
 1389 024e 3346     		mov	r3, r6
 1390 0250 B1F82E22 		ldrh	r2, [r1, #558]
 1391 0254 D1F83C12 		ldr	r1, [r1, #572]
 1392 0258 FFF7FEFF 		bl	USB_ReadPMA
 1393              	.LVL139:
 1394 025c C8E7     		b	.L119
 1395              	.LVL140:
 1396              	.L118:
1323:Drivers/STM32F1xx_HAL_Driver/Src/stm32f1xx_hal_pcd.c ****             if (count != 0U)
 1397              		.loc 1 1323 0
 1398 025e B0F85030 		ldrh	r3, [r0, #80]
 1399 0262 9BB2     		uxth	r3, r3
 1400 0264 03EBC203 		add	r3, r3, r2, lsl #3
 1401 0268 0633     		adds	r3, r3, #6
 1402 026a 00EB4303 		add	r3, r0, r3, lsl #1
 1403 026e B3F80064 		ldrh	r6, [r3, #1024]
 1404 0272 C6F30906 		ubfx	r6, r6, #0, #10
 1405              	.LVL141:
1324:Drivers/STM32F1xx_HAL_Driver/Src/stm32f1xx_hal_pcd.c ****             {
 1406              		.loc 1 1324 0
 1407 0276 002E     		cmp	r6, #0
 1408 0278 BAD0     		beq	.L119
ARM GAS  /tmp/cc956sXB.s 			page 50


1326:Drivers/STM32F1xx_HAL_Driver/Src/stm32f1xx_hal_pcd.c ****             }
 1409              		.loc 1 1326 0
 1410 027a 05EB4411 		add	r1, r5, r4, lsl #5
 1411 027e 3346     		mov	r3, r6
 1412 0280 B1F83022 		ldrh	r2, [r1, #560]
 1413 0284 D1F83C12 		ldr	r1, [r1, #572]
 1414 0288 FFF7FEFF 		bl	USB_ReadPMA
 1415              	.LVL142:
 1416 028c B0E7     		b	.L119
 1417              	.L121:
1342:Drivers/STM32F1xx_HAL_Driver/Src/stm32f1xx_hal_pcd.c ****         }
 1418              		.loc 1 1342 0
 1419 028e 05EB4411 		add	r1, r5, r4, lsl #5
 1420 0292 91F82812 		ldrb	r1, [r1, #552]	@ zero_extendqisi2
 1421 0296 2846     		mov	r0, r5
 1422 0298 FFF7FEFF 		bl	HAL_PCD_EP_Receive
 1423              	.LVL143:
 1424 029c 31E7     		b	.L115
 1425              	.LVL144:
 1426              	.L122:
1361:Drivers/STM32F1xx_HAL_Driver/Src/stm32f1xx_hal_pcd.c ****           }
1362:Drivers/STM32F1xx_HAL_Driver/Src/stm32f1xx_hal_pcd.c ****         }
1363:Drivers/STM32F1xx_HAL_Driver/Src/stm32f1xx_hal_pcd.c ****         else
1364:Drivers/STM32F1xx_HAL_Driver/Src/stm32f1xx_hal_pcd.c ****         {
1365:Drivers/STM32F1xx_HAL_Driver/Src/stm32f1xx_hal_pcd.c ****           if (PCD_GET_ENDPOINT(hpcd->Instance, ep->num) & USB_EP_DTOG_TX)
 1427              		.loc 1 1365 0
 1428 029e 2868     		ldr	r0, [r5]
 1429 02a0 05EB4413 		add	r3, r5, r4, lsl #5
 1430 02a4 93F82820 		ldrb	r2, [r3, #40]	@ zero_extendqisi2
 1431 02a8 30F82230 		ldrh	r3, [r0, r2, lsl #2]
 1432 02ac 13F0400F 		tst	r3, #64
 1433 02b0 00F0B880 		beq	.L124
1366:Drivers/STM32F1xx_HAL_Driver/Src/stm32f1xx_hal_pcd.c ****           {
1367:Drivers/STM32F1xx_HAL_Driver/Src/stm32f1xx_hal_pcd.c ****             /*read from endpoint BUF0Addr buffer*/
1368:Drivers/STM32F1xx_HAL_Driver/Src/stm32f1xx_hal_pcd.c ****             ep->xfer_count = PCD_GET_EP_DBUF0_CNT(hpcd->Instance, ep->num);
 1434              		.loc 1 1368 0
 1435 02b4 B0F85030 		ldrh	r3, [r0, #80]
 1436 02b8 9BB2     		uxth	r3, r3
 1437 02ba 03EBC203 		add	r3, r3, r2, lsl #3
 1438 02be 0233     		adds	r3, r3, #2
 1439 02c0 00EB4303 		add	r3, r0, r3, lsl #1
 1440 02c4 D3F80034 		ldr	r3, [r3, #1024]
 1441 02c8 C3F30903 		ubfx	r3, r3, #0, #10
 1442 02cc A21C     		adds	r2, r4, #2
 1443 02ce 05EB4212 		add	r2, r5, r2, lsl #5
 1444 02d2 5360     		str	r3, [r2, #4]
1369:Drivers/STM32F1xx_HAL_Driver/Src/stm32f1xx_hal_pcd.c ****             if (ep->xfer_count != 0U)
 1445              		.loc 1 1369 0
 1446 02d4 002B     		cmp	r3, #0
 1447 02d6 40F09E80 		bne	.L131
 1448              	.L125:
1370:Drivers/STM32F1xx_HAL_Driver/Src/stm32f1xx_hal_pcd.c ****             {
1371:Drivers/STM32F1xx_HAL_Driver/Src/stm32f1xx_hal_pcd.c ****               USB_WritePMA(hpcd->Instance, ep->xfer_buff, ep->pmaaddr0, ep->xfer_count);
1372:Drivers/STM32F1xx_HAL_Driver/Src/stm32f1xx_hal_pcd.c ****             }
1373:Drivers/STM32F1xx_HAL_Driver/Src/stm32f1xx_hal_pcd.c ****           }
1374:Drivers/STM32F1xx_HAL_Driver/Src/stm32f1xx_hal_pcd.c ****           else
1375:Drivers/STM32F1xx_HAL_Driver/Src/stm32f1xx_hal_pcd.c ****           {
ARM GAS  /tmp/cc956sXB.s 			page 51


1376:Drivers/STM32F1xx_HAL_Driver/Src/stm32f1xx_hal_pcd.c ****             /*read from endpoint BUF1Addr buffer*/
1377:Drivers/STM32F1xx_HAL_Driver/Src/stm32f1xx_hal_pcd.c ****             ep->xfer_count = PCD_GET_EP_DBUF1_CNT(hpcd->Instance, ep->num);
1378:Drivers/STM32F1xx_HAL_Driver/Src/stm32f1xx_hal_pcd.c ****             if (ep->xfer_count != 0U)
1379:Drivers/STM32F1xx_HAL_Driver/Src/stm32f1xx_hal_pcd.c ****             {
1380:Drivers/STM32F1xx_HAL_Driver/Src/stm32f1xx_hal_pcd.c ****               USB_WritePMA(hpcd->Instance, ep->xfer_buff, ep->pmaaddr1, ep->xfer_count);
1381:Drivers/STM32F1xx_HAL_Driver/Src/stm32f1xx_hal_pcd.c ****             }
1382:Drivers/STM32F1xx_HAL_Driver/Src/stm32f1xx_hal_pcd.c ****           }
1383:Drivers/STM32F1xx_HAL_Driver/Src/stm32f1xx_hal_pcd.c ****           PCD_FreeUserBuffer(hpcd->Instance, ep->num, PCD_EP_DBUF_IN);  
 1449              		.loc 1 1383 0 discriminator 3
 1450 02da 2A68     		ldr	r2, [r5]
 1451 02dc 05EB4413 		add	r3, r5, r4, lsl #5
 1452 02e0 93F82810 		ldrb	r1, [r3, #40]	@ zero_extendqisi2
 1453 02e4 32F82130 		ldrh	r3, [r2, r1, lsl #2]
 1454 02e8 23F0F003 		bic	r3, r3, #240
 1455 02ec 1B05     		lsls	r3, r3, #20
 1456 02ee 1B0D     		lsrs	r3, r3, #20
 1457 02f0 43F44043 		orr	r3, r3, #49152
 1458 02f4 43F08003 		orr	r3, r3, #128
 1459 02f8 22F82130 		strh	r3, [r2, r1, lsl #2]	@ movhi
 1460              	.L123:
1384:Drivers/STM32F1xx_HAL_Driver/Src/stm32f1xx_hal_pcd.c ****         }
1385:Drivers/STM32F1xx_HAL_Driver/Src/stm32f1xx_hal_pcd.c ****         /*multi-packet on the NON control IN endpoint*/
1386:Drivers/STM32F1xx_HAL_Driver/Src/stm32f1xx_hal_pcd.c ****         ep->xfer_count = PCD_GET_EP_TX_CNT(hpcd->Instance, ep->num);
 1461              		.loc 1 1386 0
 1462 02fc 2A68     		ldr	r2, [r5]
 1463 02fe B2F85030 		ldrh	r3, [r2, #80]
 1464 0302 9BB2     		uxth	r3, r3
 1465 0304 05EB4410 		add	r0, r5, r4, lsl #5
 1466 0308 90F82810 		ldrb	r1, [r0, #40]	@ zero_extendqisi2
 1467 030c 03EBC103 		add	r3, r3, r1, lsl #3
 1468 0310 0233     		adds	r3, r3, #2
 1469 0312 02EB4303 		add	r3, r2, r3, lsl #1
 1470 0316 D3F80024 		ldr	r2, [r3, #1024]
 1471 031a C2F30902 		ubfx	r2, r2, #0, #10
 1472 031e A31C     		adds	r3, r4, #2
 1473 0320 5B01     		lsls	r3, r3, #5
 1474 0322 E918     		adds	r1, r5, r3
 1475 0324 4A60     		str	r2, [r1, #4]
1387:Drivers/STM32F1xx_HAL_Driver/Src/stm32f1xx_hal_pcd.c ****         ep->xfer_buff+=ep->xfer_count;
 1476              		.loc 1 1387 0
 1477 0326 C16B     		ldr	r1, [r0, #60]
 1478 0328 0A44     		add	r2, r2, r1
 1479 032a C263     		str	r2, [r0, #60]
1388:Drivers/STM32F1xx_HAL_Driver/Src/stm32f1xx_hal_pcd.c ****        
1389:Drivers/STM32F1xx_HAL_Driver/Src/stm32f1xx_hal_pcd.c ****         /* Zero Length Packet? */
1390:Drivers/STM32F1xx_HAL_Driver/Src/stm32f1xx_hal_pcd.c ****         if (ep->xfer_len == 0U)
 1480              		.loc 1 1390 0
 1481 032c EB58     		ldr	r3, [r5, r3]
 1482 032e 002B     		cmp	r3, #0
 1483 0330 40F09280 		bne	.L126
1391:Drivers/STM32F1xx_HAL_Driver/Src/stm32f1xx_hal_pcd.c ****         {
1392:Drivers/STM32F1xx_HAL_Driver/Src/stm32f1xx_hal_pcd.c ****           /* TX COMPLETE */
1393:Drivers/STM32F1xx_HAL_Driver/Src/stm32f1xx_hal_pcd.c ****           HAL_PCD_DataInStageCallback(hpcd, ep->num);
 1484              		.loc 1 1393 0
 1485 0334 90F82810 		ldrb	r1, [r0, #40]	@ zero_extendqisi2
 1486 0338 2846     		mov	r0, r5
 1487 033a FFF7FEFF 		bl	HAL_PCD_DataInStageCallback
ARM GAS  /tmp/cc956sXB.s 			page 52


 1488              	.LVL145:
 1489              	.L105:
1214:Drivers/STM32F1xx_HAL_Driver/Src/stm32f1xx_hal_pcd.c ****   {
 1490              		.loc 1 1214 0
 1491 033e 2868     		ldr	r0, [r5]
 1492 0340 B0F84430 		ldrh	r3, [r0, #68]
 1493 0344 9BB2     		uxth	r3, r3
 1494 0346 ADF80630 		strh	r3, [sp, #6]	@ movhi
 1495 034a 13F4004F 		tst	r3, #32768
 1496 034e 00F08B80 		beq	.L132
1217:Drivers/STM32F1xx_HAL_Driver/Src/stm32f1xx_hal_pcd.c ****     
 1497              		.loc 1 1217 0
 1498 0352 BDF80640 		ldrh	r4, [sp, #6]
 1499              	.LVL146:
1219:Drivers/STM32F1xx_HAL_Driver/Src/stm32f1xx_hal_pcd.c ****     {
 1500              		.loc 1 1219 0
 1501 0356 14F00F04 		ands	r4, r4, #15
 1502              	.LVL147:
 1503 035a 7FF4C8AE 		bne	.L106
1224:Drivers/STM32F1xx_HAL_Driver/Src/stm32f1xx_hal_pcd.c ****       {
 1504              		.loc 1 1224 0
 1505 035e BDF80630 		ldrh	r3, [sp, #6]
 1506 0362 13F0100F 		tst	r3, #16
 1507 0366 3FF454AE 		beq	.L133
 1508              	.LVL148:
1254:Drivers/STM32F1xx_HAL_Driver/Src/stm32f1xx_hal_pcd.c ****         
 1509              		.loc 1 1254 0
 1510 036a 0388     		ldrh	r3, [r0]
 1511 036c 9BB2     		uxth	r3, r3
 1512 036e ADF80430 		strh	r3, [sp, #4]	@ movhi
1256:Drivers/STM32F1xx_HAL_Driver/Src/stm32f1xx_hal_pcd.c ****         {
 1513              		.loc 1 1256 0
 1514 0372 BDF80430 		ldrh	r3, [sp, #4]
 1515 0376 13F4006F 		tst	r3, #2048
 1516 037a 7FF47DAE 		bne	.L134
1268:Drivers/STM32F1xx_HAL_Driver/Src/stm32f1xx_hal_pcd.c ****         {
 1517              		.loc 1 1268 0
 1518 037e BDF80430 		ldrh	r3, [sp, #4]
 1519 0382 13F4004F 		tst	r3, #32768
 1520 0386 DAD0     		beq	.L105
1270:Drivers/STM32F1xx_HAL_Driver/Src/stm32f1xx_hal_pcd.c ****           /* Get Control Data OUT Packet*/
 1521              		.loc 1 1270 0
 1522 0388 0388     		ldrh	r3, [r0]
 1523 038a 23F07003 		bic	r3, r3, #112
 1524 038e 1B05     		lsls	r3, r3, #20
 1525 0390 1B0D     		lsrs	r3, r3, #20
 1526 0392 0380     		strh	r3, [r0]	@ movhi
1272:Drivers/STM32F1xx_HAL_Driver/Src/stm32f1xx_hal_pcd.c ****           
 1527              		.loc 1 1272 0
 1528 0394 2868     		ldr	r0, [r5]
 1529 0396 B0F85030 		ldrh	r3, [r0, #80]
 1530 039a 9BB2     		uxth	r3, r3
 1531 039c 95F82822 		ldrb	r2, [r5, #552]	@ zero_extendqisi2
 1532 03a0 03EBC203 		add	r3, r3, r2, lsl #3
 1533 03a4 0633     		adds	r3, r3, #6
 1534 03a6 00EB4303 		add	r3, r0, r3, lsl #1
 1535 03aa D3F80034 		ldr	r3, [r3, #1024]
ARM GAS  /tmp/cc956sXB.s 			page 53


 1536 03ae C3F30903 		ubfx	r3, r3, #0, #10
 1537 03b2 C5F84432 		str	r3, [r5, #580]
1274:Drivers/STM32F1xx_HAL_Driver/Src/stm32f1xx_hal_pcd.c ****           {
 1538              		.loc 1 1274 0
 1539 03b6 002B     		cmp	r3, #0
 1540 03b8 7FF47FAE 		bne	.L135
 1541              	.L110:
1281:Drivers/STM32F1xx_HAL_Driver/Src/stm32f1xx_hal_pcd.c ****           
 1542              		.loc 1 1281 0
 1543 03bc 0021     		movs	r1, #0
 1544 03be 2846     		mov	r0, r5
 1545 03c0 FFF7FEFF 		bl	HAL_PCD_DataOutStageCallback
 1546              	.LVL149:
 1547              	.LBB5:
1283:Drivers/STM32F1xx_HAL_Driver/Src/stm32f1xx_hal_pcd.c ****           PCD_SET_EP_RX_STATUS(hpcd->Instance, PCD_ENDP0, USB_EP_RX_VALID);
 1548              		.loc 1 1283 0
 1549 03c4 2A68     		ldr	r2, [r5]
 1550 03c6 B2F85030 		ldrh	r3, [r2, #80]
 1551 03ca 9BB2     		uxth	r3, r3
 1552 03cc 0633     		adds	r3, r3, #6
 1553 03ce 02EB4303 		add	r3, r2, r3, lsl #1
 1554              	.LVL150:
 1555              	.LBB4:
 1556 03d2 D5F83812 		ldr	r1, [r5, #568]
 1557 03d6 3E29     		cmp	r1, #62
 1558 03d8 7FF67DAE 		bls	.L111
1283:Drivers/STM32F1xx_HAL_Driver/Src/stm32f1xx_hal_pcd.c ****           PCD_SET_EP_RX_STATUS(hpcd->Instance, PCD_ENDP0, USB_EP_RX_VALID);
 1559              		.loc 1 1283 0 is_stmt 0 discriminator 1
 1560 03dc C1F34F12 		ubfx	r2, r1, #5, #16
 1561              	.LVL151:
 1562 03e0 11F01F0F 		tst	r1, #31
 1563 03e4 01D1     		bne	.L112
1283:Drivers/STM32F1xx_HAL_Driver/Src/stm32f1xx_hal_pcd.c ****           PCD_SET_EP_RX_STATUS(hpcd->Instance, PCD_ENDP0, USB_EP_RX_VALID);
 1564              		.loc 1 1283 0 discriminator 3
 1565 03e6 013A     		subs	r2, r2, #1
 1566              	.LVL152:
 1567 03e8 92B2     		uxth	r2, r2
 1568              	.LVL153:
 1569              	.L112:
1283:Drivers/STM32F1xx_HAL_Driver/Src/stm32f1xx_hal_pcd.c ****           PCD_SET_EP_RX_STATUS(hpcd->Instance, PCD_ENDP0, USB_EP_RX_VALID);
 1570              		.loc 1 1283 0 discriminator 5
 1571 03ea 6FEAC262 		mvn	r2, r2, lsl #27
 1572              	.LVL154:
 1573 03ee 6FEA5242 		mvn	r2, r2, lsr #17
 1574 03f2 92B2     		uxth	r2, r2
 1575 03f4 C3F80024 		str	r2, [r3, #1024]
 1576              	.L113:
 1577              	.LBE4:
 1578              	.LBE5:
 1579              	.LBB6:
1284:Drivers/STM32F1xx_HAL_Driver/Src/stm32f1xx_hal_pcd.c ****         }
 1580              		.loc 1 1284 0 is_stmt 1
 1581 03f8 2A68     		ldr	r2, [r5]
 1582 03fa 1388     		ldrh	r3, [r2]
 1583              	.LVL155:
 1584 03fc 9BB2     		uxth	r3, r3
 1585 03fe 23F48043 		bic	r3, r3, #16384
ARM GAS  /tmp/cc956sXB.s 			page 54


 1586 0402 23F07003 		bic	r3, r3, #112
 1587              	.LVL156:
 1588 0406 83F44053 		eor	r3, r3, #12288
 1589              	.LVL157:
 1590 040a 43F40043 		orr	r3, r3, #32768
 1591              	.LVL158:
 1592 040e 43F08003 		orr	r3, r3, #128
 1593 0412 1380     		strh	r3, [r2]	@ movhi
 1594 0414 93E7     		b	.L105
 1595              	.LVL159:
 1596              	.L131:
 1597              	.LBE6:
1371:Drivers/STM32F1xx_HAL_Driver/Src/stm32f1xx_hal_pcd.c ****             }
 1598              		.loc 1 1371 0
 1599 0416 05EB4411 		add	r1, r5, r4, lsl #5
 1600 041a CA8D     		ldrh	r2, [r1, #46]
 1601 041c C96B     		ldr	r1, [r1, #60]
 1602 041e FFF7FEFF 		bl	USB_WritePMA
 1603              	.LVL160:
 1604 0422 5AE7     		b	.L125
 1605              	.L124:
1377:Drivers/STM32F1xx_HAL_Driver/Src/stm32f1xx_hal_pcd.c ****             if (ep->xfer_count != 0U)
 1606              		.loc 1 1377 0
 1607 0424 B0F85030 		ldrh	r3, [r0, #80]
 1608 0428 9BB2     		uxth	r3, r3
 1609 042a 03EBC203 		add	r3, r3, r2, lsl #3
 1610 042e 0633     		adds	r3, r3, #6
 1611 0430 00EB4303 		add	r3, r0, r3, lsl #1
 1612 0434 D3F80034 		ldr	r3, [r3, #1024]
 1613 0438 C3F30903 		ubfx	r3, r3, #0, #10
 1614 043c A21C     		adds	r2, r4, #2
 1615 043e 05EB4212 		add	r2, r5, r2, lsl #5
 1616 0442 5360     		str	r3, [r2, #4]
1378:Drivers/STM32F1xx_HAL_Driver/Src/stm32f1xx_hal_pcd.c ****             {
 1617              		.loc 1 1378 0
 1618 0444 002B     		cmp	r3, #0
 1619 0446 3FF448AF 		beq	.L125
1380:Drivers/STM32F1xx_HAL_Driver/Src/stm32f1xx_hal_pcd.c ****             }
 1620              		.loc 1 1380 0
 1621 044a 05EB4411 		add	r1, r5, r4, lsl #5
 1622 044e 0A8E     		ldrh	r2, [r1, #48]
 1623 0450 C96B     		ldr	r1, [r1, #60]
 1624 0452 FFF7FEFF 		bl	USB_WritePMA
 1625              	.LVL161:
 1626 0456 40E7     		b	.L125
 1627              	.L126:
1394:Drivers/STM32F1xx_HAL_Driver/Src/stm32f1xx_hal_pcd.c ****         }
1395:Drivers/STM32F1xx_HAL_Driver/Src/stm32f1xx_hal_pcd.c ****         else
1396:Drivers/STM32F1xx_HAL_Driver/Src/stm32f1xx_hal_pcd.c ****         {
1397:Drivers/STM32F1xx_HAL_Driver/Src/stm32f1xx_hal_pcd.c ****           HAL_PCD_EP_Transmit(hpcd, ep->num, ep->xfer_buff, ep->xfer_len);
 1628              		.loc 1 1397 0
 1629 0458 05EB4414 		add	r4, r5, r4, lsl #5
 1630              	.LVL162:
 1631 045c 94F82810 		ldrb	r1, [r4, #40]	@ zero_extendqisi2
 1632 0460 2846     		mov	r0, r5
 1633 0462 FFF7FEFF 		bl	HAL_PCD_EP_Transmit
 1634              	.LVL163:
ARM GAS  /tmp/cc956sXB.s 			page 55


 1635 0466 6AE7     		b	.L105
 1636              	.L132:
1398:Drivers/STM32F1xx_HAL_Driver/Src/stm32f1xx_hal_pcd.c ****         }
1399:Drivers/STM32F1xx_HAL_Driver/Src/stm32f1xx_hal_pcd.c ****       } 
1400:Drivers/STM32F1xx_HAL_Driver/Src/stm32f1xx_hal_pcd.c ****     }
1401:Drivers/STM32F1xx_HAL_Driver/Src/stm32f1xx_hal_pcd.c ****   }
1402:Drivers/STM32F1xx_HAL_Driver/Src/stm32f1xx_hal_pcd.c ****   return HAL_OK;
1403:Drivers/STM32F1xx_HAL_Driver/Src/stm32f1xx_hal_pcd.c **** }
 1637              		.loc 1 1403 0
 1638 0468 0020     		movs	r0, #0
 1639 046a 02B0     		add	sp, sp, #8
 1640              	.LCFI17:
 1641              		.cfi_def_cfa_offset 16
 1642              		@ sp needed
 1643 046c 70BD     		pop	{r4, r5, r6, pc}
 1644              		.cfi_endproc
 1645              	.LFE96:
 1647              		.section	.text.HAL_PCD_IRQHandler,"ax",%progbits
 1648              		.align	1
 1649              		.global	HAL_PCD_IRQHandler
 1650              		.syntax unified
 1651              		.thumb
 1652              		.thumb_func
 1653              		.fpu softvfp
 1655              	HAL_PCD_IRQHandler:
 1656              	.LFB70:
 572:Drivers/STM32F1xx_HAL_Driver/Src/stm32f1xx_hal_pcd.c ****   if (__HAL_PCD_GET_FLAG (hpcd, USB_ISTR_CTR))
 1657              		.loc 1 572 0
 1658              		.cfi_startproc
 1659              		@ args = 0, pretend = 0, frame = 0
 1660              		@ frame_needed = 0, uses_anonymous_args = 0
 1661              	.LVL164:
 1662 0000 10B5     		push	{r4, lr}
 1663              	.LCFI18:
 1664              		.cfi_def_cfa_offset 8
 1665              		.cfi_offset 4, -8
 1666              		.cfi_offset 14, -4
 1667 0002 0446     		mov	r4, r0
 573:Drivers/STM32F1xx_HAL_Driver/Src/stm32f1xx_hal_pcd.c ****   {
 1668              		.loc 1 573 0
 1669 0004 0068     		ldr	r0, [r0]
 1670              	.LVL165:
 1671 0006 FFF7FEFF 		bl	USB_ReadInterrupts
 1672              	.LVL166:
 1673 000a 10F4004F 		tst	r0, #32768
 1674 000e 45D1     		bne	.L146
 1675              	.L137:
 580:Drivers/STM32F1xx_HAL_Driver/Src/stm32f1xx_hal_pcd.c ****   {
 1676              		.loc 1 580 0
 1677 0010 2068     		ldr	r0, [r4]
 1678 0012 FFF7FEFF 		bl	USB_ReadInterrupts
 1679              	.LVL167:
 1680 0016 10F4806F 		tst	r0, #1024
 1681 001a 43D1     		bne	.L147
 1682              	.L138:
 587:Drivers/STM32F1xx_HAL_Driver/Src/stm32f1xx_hal_pcd.c ****   {
 1683              		.loc 1 587 0
ARM GAS  /tmp/cc956sXB.s 			page 56


 1684 001c 2068     		ldr	r0, [r4]
 1685 001e FFF7FEFF 		bl	USB_ReadInterrupts
 1686              	.LVL168:
 1687 0022 10F4804F 		tst	r0, #16384
 1688 0026 08D0     		beq	.L139
 589:Drivers/STM32F1xx_HAL_Driver/Src/stm32f1xx_hal_pcd.c ****   }
 1689              		.loc 1 589 0
 1690 0028 2268     		ldr	r2, [r4]
 1691 002a B2F84430 		ldrh	r3, [r2, #68]
 1692 002e 9BB2     		uxth	r3, r3
 1693 0030 23F48043 		bic	r3, r3, #16384
 1694 0034 9BB2     		uxth	r3, r3
 1695 0036 A2F84430 		strh	r3, [r2, #68]	@ movhi
 1696              	.L139:
 591:Drivers/STM32F1xx_HAL_Driver/Src/stm32f1xx_hal_pcd.c ****   {
 1697              		.loc 1 591 0
 1698 003a 2068     		ldr	r0, [r4]
 1699 003c FFF7FEFF 		bl	USB_ReadInterrupts
 1700              	.LVL169:
 1701 0040 10F4005F 		tst	r0, #8192
 1702 0044 08D0     		beq	.L140
 593:Drivers/STM32F1xx_HAL_Driver/Src/stm32f1xx_hal_pcd.c ****   }
 1703              		.loc 1 593 0
 1704 0046 2268     		ldr	r2, [r4]
 1705 0048 B2F84430 		ldrh	r3, [r2, #68]
 1706 004c 9BB2     		uxth	r3, r3
 1707 004e 23F40053 		bic	r3, r3, #8192
 1708 0052 9BB2     		uxth	r3, r3
 1709 0054 A2F84430 		strh	r3, [r2, #68]	@ movhi
 1710              	.L140:
 596:Drivers/STM32F1xx_HAL_Driver/Src/stm32f1xx_hal_pcd.c ****   {
 1711              		.loc 1 596 0
 1712 0058 2068     		ldr	r0, [r4]
 1713 005a FFF7FEFF 		bl	USB_ReadInterrupts
 1714              	.LVL170:
 1715 005e 10F4805F 		tst	r0, #4096
 1716 0062 30D1     		bne	.L148
 1717              	.L141:
 606:Drivers/STM32F1xx_HAL_Driver/Src/stm32f1xx_hal_pcd.c ****   { 
 1718              		.loc 1 606 0
 1719 0064 2068     		ldr	r0, [r4]
 1720 0066 FFF7FEFF 		bl	USB_ReadInterrupts
 1721              	.LVL171:
 1722 006a 10F4006F 		tst	r0, #2048
 1723 006e 49D1     		bne	.L149
 1724              	.L142:
 621:Drivers/STM32F1xx_HAL_Driver/Src/stm32f1xx_hal_pcd.c ****   {
 1725              		.loc 1 621 0
 1726 0070 2068     		ldr	r0, [r4]
 1727 0072 FFF7FEFF 		bl	USB_ReadInterrupts
 1728              	.LVL172:
 1729 0076 10F4007F 		tst	r0, #512
 1730 007a 66D1     		bne	.L150
 1731              	.L143:
 627:Drivers/STM32F1xx_HAL_Driver/Src/stm32f1xx_hal_pcd.c ****   {
 1732              		.loc 1 627 0
 1733 007c 2068     		ldr	r0, [r4]
ARM GAS  /tmp/cc956sXB.s 			page 57


 1734 007e FFF7FEFF 		bl	USB_ReadInterrupts
 1735              	.LVL173:
 1736 0082 10F4807F 		tst	r0, #256
 1737 0086 08D0     		beq	.L136
 630:Drivers/STM32F1xx_HAL_Driver/Src/stm32f1xx_hal_pcd.c ****   }
 1738              		.loc 1 630 0
 1739 0088 2268     		ldr	r2, [r4]
 1740 008a B2F84430 		ldrh	r3, [r2, #68]
 1741 008e 9BB2     		uxth	r3, r3
 1742 0090 23F48073 		bic	r3, r3, #256
 1743 0094 9BB2     		uxth	r3, r3
 1744 0096 A2F84430 		strh	r3, [r2, #68]	@ movhi
 1745              	.L136:
 1746 009a 10BD     		pop	{r4, pc}
 1747              	.LVL174:
 1748              	.L146:
 577:Drivers/STM32F1xx_HAL_Driver/Src/stm32f1xx_hal_pcd.c ****   }
 1749              		.loc 1 577 0
 1750 009c 2046     		mov	r0, r4
 1751 009e FFF7FEFF 		bl	PCD_EP_ISR_Handler
 1752              	.LVL175:
 1753 00a2 B5E7     		b	.L137
 1754              	.L147:
 582:Drivers/STM32F1xx_HAL_Driver/Src/stm32f1xx_hal_pcd.c ****     HAL_PCD_ResetCallback(hpcd);
 1755              		.loc 1 582 0
 1756 00a4 2268     		ldr	r2, [r4]
 1757 00a6 B2F84430 		ldrh	r3, [r2, #68]
 1758 00aa 9BB2     		uxth	r3, r3
 1759 00ac 23F48063 		bic	r3, r3, #1024
 1760 00b0 9BB2     		uxth	r3, r3
 1761 00b2 A2F84430 		strh	r3, [r2, #68]	@ movhi
 583:Drivers/STM32F1xx_HAL_Driver/Src/stm32f1xx_hal_pcd.c ****     HAL_PCD_SetAddress(hpcd, 0U);
 1762              		.loc 1 583 0
 1763 00b6 2046     		mov	r0, r4
 1764 00b8 FFF7FEFF 		bl	HAL_PCD_ResetCallback
 1765              	.LVL176:
 584:Drivers/STM32F1xx_HAL_Driver/Src/stm32f1xx_hal_pcd.c ****   }
 1766              		.loc 1 584 0
 1767 00bc 0021     		movs	r1, #0
 1768 00be 2046     		mov	r0, r4
 1769 00c0 FFF7FEFF 		bl	HAL_PCD_SetAddress
 1770              	.LVL177:
 1771 00c4 AAE7     		b	.L138
 1772              	.L148:
 598:Drivers/STM32F1xx_HAL_Driver/Src/stm32f1xx_hal_pcd.c ****     hpcd->Instance->CNTR &= ~(USB_CNTR_FSUSP);
 1773              		.loc 1 598 0
 1774 00c6 2268     		ldr	r2, [r4]
 1775 00c8 B2F84030 		ldrh	r3, [r2, #64]
 1776 00cc 9BB2     		uxth	r3, r3
 1777 00ce 23F00403 		bic	r3, r3, #4
 1778 00d2 9BB2     		uxth	r3, r3
 1779 00d4 A2F84030 		strh	r3, [r2, #64]	@ movhi
 599:Drivers/STM32F1xx_HAL_Driver/Src/stm32f1xx_hal_pcd.c ****     
 1780              		.loc 1 599 0
 1781 00d8 2268     		ldr	r2, [r4]
 1782 00da B2F84030 		ldrh	r3, [r2, #64]
 1783 00de 9BB2     		uxth	r3, r3
ARM GAS  /tmp/cc956sXB.s 			page 58


 1784 00e0 23F00803 		bic	r3, r3, #8
 1785 00e4 9BB2     		uxth	r3, r3
 1786 00e6 A2F84030 		strh	r3, [r2, #64]	@ movhi
 601:Drivers/STM32F1xx_HAL_Driver/Src/stm32f1xx_hal_pcd.c **** 
 1787              		.loc 1 601 0
 1788 00ea 2046     		mov	r0, r4
 1789 00ec FFF7FEFF 		bl	HAL_PCD_ResumeCallback
 1790              	.LVL178:
 603:Drivers/STM32F1xx_HAL_Driver/Src/stm32f1xx_hal_pcd.c ****   }
 1791              		.loc 1 603 0
 1792 00f0 2268     		ldr	r2, [r4]
 1793 00f2 B2F84430 		ldrh	r3, [r2, #68]
 1794 00f6 9BB2     		uxth	r3, r3
 1795 00f8 23F48053 		bic	r3, r3, #4096
 1796 00fc 9BB2     		uxth	r3, r3
 1797 00fe A2F84430 		strh	r3, [r2, #68]	@ movhi
 1798 0102 AFE7     		b	.L141
 1799              	.L149:
 609:Drivers/STM32F1xx_HAL_Driver/Src/stm32f1xx_hal_pcd.c ****     
 1800              		.loc 1 609 0
 1801 0104 2268     		ldr	r2, [r4]
 1802 0106 B2F84030 		ldrh	r3, [r2, #64]
 1803 010a 9BB2     		uxth	r3, r3
 1804 010c 43F00803 		orr	r3, r3, #8
 1805 0110 A2F84030 		strh	r3, [r2, #64]	@ movhi
 612:Drivers/STM32F1xx_HAL_Driver/Src/stm32f1xx_hal_pcd.c **** 
 1806              		.loc 1 612 0
 1807 0114 2268     		ldr	r2, [r4]
 1808 0116 B2F84430 		ldrh	r3, [r2, #68]
 1809 011a 9BB2     		uxth	r3, r3
 1810 011c 23F40063 		bic	r3, r3, #2048
 1811 0120 9BB2     		uxth	r3, r3
 1812 0122 A2F84430 		strh	r3, [r2, #68]	@ movhi
 614:Drivers/STM32F1xx_HAL_Driver/Src/stm32f1xx_hal_pcd.c ****     if (__HAL_PCD_GET_FLAG (hpcd, USB_ISTR_WKUP) == 0U)
 1813              		.loc 1 614 0
 1814 0126 2268     		ldr	r2, [r4]
 1815 0128 B2F84030 		ldrh	r3, [r2, #64]
 1816 012c 9BB2     		uxth	r3, r3
 1817 012e 43F00403 		orr	r3, r3, #4
 1818 0132 A2F84030 		strh	r3, [r2, #64]	@ movhi
 615:Drivers/STM32F1xx_HAL_Driver/Src/stm32f1xx_hal_pcd.c ****     {
 1819              		.loc 1 615 0
 1820 0136 2068     		ldr	r0, [r4]
 1821 0138 FFF7FEFF 		bl	USB_ReadInterrupts
 1822              	.LVL179:
 1823 013c 10F4805F 		tst	r0, #4096
 1824 0140 96D1     		bne	.L142
 617:Drivers/STM32F1xx_HAL_Driver/Src/stm32f1xx_hal_pcd.c ****     }
 1825              		.loc 1 617 0
 1826 0142 2046     		mov	r0, r4
 1827 0144 FFF7FEFF 		bl	HAL_PCD_SuspendCallback
 1828              	.LVL180:
 1829 0148 92E7     		b	.L142
 1830              	.L150:
 623:Drivers/STM32F1xx_HAL_Driver/Src/stm32f1xx_hal_pcd.c ****     HAL_PCD_SOFCallback(hpcd);
 1831              		.loc 1 623 0
 1832 014a 2268     		ldr	r2, [r4]
ARM GAS  /tmp/cc956sXB.s 			page 59


 1833 014c B2F84430 		ldrh	r3, [r2, #68]
 1834 0150 9BB2     		uxth	r3, r3
 1835 0152 23F40073 		bic	r3, r3, #512
 1836 0156 9BB2     		uxth	r3, r3
 1837 0158 A2F84430 		strh	r3, [r2, #68]	@ movhi
 624:Drivers/STM32F1xx_HAL_Driver/Src/stm32f1xx_hal_pcd.c ****   }
 1838              		.loc 1 624 0
 1839 015c 2046     		mov	r0, r4
 1840 015e FFF7FEFF 		bl	HAL_PCD_SOFCallback
 1841              	.LVL181:
 1842 0162 8BE7     		b	.L143
 1843              		.cfi_endproc
 1844              	.LFE70:
 1846              		.section	.text.HAL_PCD_EP_SetStall,"ax",%progbits
 1847              		.align	1
 1848              		.global	HAL_PCD_EP_SetStall
 1849              		.syntax unified
 1850              		.thumb
 1851              		.thumb_func
 1852              		.fpu softvfp
 1854              	HAL_PCD_EP_SetStall:
 1855              	.LFB90:
1002:Drivers/STM32F1xx_HAL_Driver/Src/stm32f1xx_hal_pcd.c ****   PCD_EPTypeDef *ep = NULL;
 1856              		.loc 1 1002 0
 1857              		.cfi_startproc
 1858              		@ args = 0, pretend = 0, frame = 0
 1859              		@ frame_needed = 0, uses_anonymous_args = 0
 1860              	.LVL182:
 1861 0000 38B5     		push	{r3, r4, r5, lr}
 1862              	.LCFI19:
 1863              		.cfi_def_cfa_offset 16
 1864              		.cfi_offset 3, -16
 1865              		.cfi_offset 4, -12
 1866              		.cfi_offset 5, -8
 1867              		.cfi_offset 14, -4
 1868              	.LVL183:
1005:Drivers/STM32F1xx_HAL_Driver/Src/stm32f1xx_hal_pcd.c ****   {
 1869              		.loc 1 1005 0
 1870 0002 4AB2     		sxtb	r2, r1
 1871 0004 002A     		cmp	r2, #0
 1872 0006 10DB     		blt	.L158
1011:Drivers/STM32F1xx_HAL_Driver/Src/stm32f1xx_hal_pcd.c ****   }
 1873              		.loc 1 1011 0
 1874 0008 4B01     		lsls	r3, r1, #5
 1875 000a 03F50A73 		add	r3, r3, #552
 1876 000e 0344     		add	r3, r3, r0
 1877              	.LVL184:
 1878              	.L153:
1014:Drivers/STM32F1xx_HAL_Driver/Src/stm32f1xx_hal_pcd.c ****   ep->num   = ep_addr & 0x7FU;
 1879              		.loc 1 1014 0
 1880 0010 0124     		movs	r4, #1
 1881 0012 9C70     		strb	r4, [r3, #2]
1015:Drivers/STM32F1xx_HAL_Driver/Src/stm32f1xx_hal_pcd.c ****   ep->is_in = ((ep_addr & 0x80U) == 0x80U);
 1882              		.loc 1 1015 0
 1883 0014 01F07F04 		and	r4, r1, #127
 1884 0018 1C70     		strb	r4, [r3]
1016:Drivers/STM32F1xx_HAL_Driver/Src/stm32f1xx_hal_pcd.c ****   
ARM GAS  /tmp/cc956sXB.s 			page 60


 1885              		.loc 1 1016 0
 1886 001a D20F     		lsrs	r2, r2, #31
 1887 001c 5A70     		strb	r2, [r3, #1]
1018:Drivers/STM32F1xx_HAL_Driver/Src/stm32f1xx_hal_pcd.c ****   USB_EPSetStall(hpcd->Instance , ep);
 1888              		.loc 1 1018 0
 1889 001e 90F82824 		ldrb	r2, [r0, #1064]	@ zero_extendqisi2
 1890 0022 012A     		cmp	r2, #1
 1891 0024 07D1     		bne	.L159
 1892 0026 0220     		movs	r0, #2
 1893              	.LVL185:
1027:Drivers/STM32F1xx_HAL_Driver/Src/stm32f1xx_hal_pcd.c **** 
 1894              		.loc 1 1027 0
 1895 0028 38BD     		pop	{r3, r4, r5, pc}
 1896              	.LVL186:
 1897              	.L158:
1007:Drivers/STM32F1xx_HAL_Driver/Src/stm32f1xx_hal_pcd.c ****   }
 1898              		.loc 1 1007 0
 1899 002a 01F07F03 		and	r3, r1, #127
 1900 002e 5B01     		lsls	r3, r3, #5
 1901 0030 2833     		adds	r3, r3, #40
 1902 0032 0344     		add	r3, r3, r0
 1903              	.LVL187:
 1904 0034 ECE7     		b	.L153
 1905              	.L159:
 1906 0036 0546     		mov	r5, r0
1018:Drivers/STM32F1xx_HAL_Driver/Src/stm32f1xx_hal_pcd.c ****   USB_EPSetStall(hpcd->Instance , ep);
 1907              		.loc 1 1018 0 discriminator 2
 1908 0038 0122     		movs	r2, #1
 1909 003a 80F82824 		strb	r2, [r0, #1064]
1019:Drivers/STM32F1xx_HAL_Driver/Src/stm32f1xx_hal_pcd.c ****   if((ep_addr & 0x7FU) == 0U)
 1910              		.loc 1 1019 0 discriminator 2
 1911 003e 1946     		mov	r1, r3
 1912              	.LVL188:
 1913 0040 0068     		ldr	r0, [r0]
 1914              	.LVL189:
 1915 0042 FFF7FEFF 		bl	USB_EPSetStall
 1916              	.LVL190:
1020:Drivers/STM32F1xx_HAL_Driver/Src/stm32f1xx_hal_pcd.c ****   {
 1917              		.loc 1 1020 0 discriminator 2
 1918 0046 1CB1     		cbz	r4, .L160
 1919              	.L155:
1024:Drivers/STM32F1xx_HAL_Driver/Src/stm32f1xx_hal_pcd.c ****   
 1920              		.loc 1 1024 0
 1921 0048 0020     		movs	r0, #0
 1922 004a 85F82804 		strb	r0, [r5, #1064]
1026:Drivers/STM32F1xx_HAL_Driver/Src/stm32f1xx_hal_pcd.c **** }
 1923              		.loc 1 1026 0
 1924 004e 38BD     		pop	{r3, r4, r5, pc}
 1925              	.LVL191:
 1926              	.L160:
1022:Drivers/STM32F1xx_HAL_Driver/Src/stm32f1xx_hal_pcd.c ****   }
 1927              		.loc 1 1022 0
 1928 0050 05F22C41 		addw	r1, r5, #1068
 1929 0054 2868     		ldr	r0, [r5]
 1930 0056 FFF7FEFF 		bl	USB_EP0_OutStart
 1931              	.LVL192:
 1932 005a F5E7     		b	.L155
ARM GAS  /tmp/cc956sXB.s 			page 61


 1933              		.cfi_endproc
 1934              	.LFE90:
 1936              		.section	.text.HAL_PCD_EP_ClrStall,"ax",%progbits
 1937              		.align	1
 1938              		.global	HAL_PCD_EP_ClrStall
 1939              		.syntax unified
 1940              		.thumb
 1941              		.thumb_func
 1942              		.fpu softvfp
 1944              	HAL_PCD_EP_ClrStall:
 1945              	.LFB91:
1036:Drivers/STM32F1xx_HAL_Driver/Src/stm32f1xx_hal_pcd.c ****   PCD_EPTypeDef *ep = NULL;
 1946              		.loc 1 1036 0
 1947              		.cfi_startproc
 1948              		@ args = 0, pretend = 0, frame = 0
 1949              		@ frame_needed = 0, uses_anonymous_args = 0
 1950              	.LVL193:
 1951 0000 10B5     		push	{r4, lr}
 1952              	.LCFI20:
 1953              		.cfi_def_cfa_offset 8
 1954              		.cfi_offset 4, -8
 1955              		.cfi_offset 14, -4
 1956              	.LVL194:
1039:Drivers/STM32F1xx_HAL_Driver/Src/stm32f1xx_hal_pcd.c ****   {
 1957              		.loc 1 1039 0
 1958 0002 4AB2     		sxtb	r2, r1
 1959 0004 002A     		cmp	r2, #0
 1960 0006 10DB     		blt	.L167
1045:Drivers/STM32F1xx_HAL_Driver/Src/stm32f1xx_hal_pcd.c ****   }
 1961              		.loc 1 1045 0
 1962 0008 4B01     		lsls	r3, r1, #5
 1963 000a 03F50A73 		add	r3, r3, #552
 1964 000e 0344     		add	r3, r3, r0
 1965              	.LVL195:
 1966              	.L163:
1048:Drivers/STM32F1xx_HAL_Driver/Src/stm32f1xx_hal_pcd.c ****   ep->num   = ep_addr & 0x7FU;
 1967              		.loc 1 1048 0
 1968 0010 0024     		movs	r4, #0
 1969 0012 9C70     		strb	r4, [r3, #2]
1049:Drivers/STM32F1xx_HAL_Driver/Src/stm32f1xx_hal_pcd.c ****   ep->is_in = ((ep_addr & 0x80U) == 0x80U);
 1970              		.loc 1 1049 0
 1971 0014 01F07F01 		and	r1, r1, #127
 1972              	.LVL196:
 1973 0018 1970     		strb	r1, [r3]
1050:Drivers/STM32F1xx_HAL_Driver/Src/stm32f1xx_hal_pcd.c ****   
 1974              		.loc 1 1050 0
 1975 001a D20F     		lsrs	r2, r2, #31
 1976              	.LVL197:
 1977 001c 5A70     		strb	r2, [r3, #1]
1052:Drivers/STM32F1xx_HAL_Driver/Src/stm32f1xx_hal_pcd.c ****   USB_EPClearStall(hpcd->Instance , ep);
 1978              		.loc 1 1052 0
 1979 001e 90F82824 		ldrb	r2, [r0, #1064]	@ zero_extendqisi2
 1980 0022 012A     		cmp	r2, #1
 1981 0024 07D1     		bne	.L168
 1982 0026 0220     		movs	r0, #2
 1983              	.LVL198:
1057:Drivers/STM32F1xx_HAL_Driver/Src/stm32f1xx_hal_pcd.c **** 
ARM GAS  /tmp/cc956sXB.s 			page 62


 1984              		.loc 1 1057 0
 1985 0028 10BD     		pop	{r4, pc}
 1986              	.LVL199:
 1987              	.L167:
1041:Drivers/STM32F1xx_HAL_Driver/Src/stm32f1xx_hal_pcd.c ****   }
 1988              		.loc 1 1041 0
 1989 002a 01F07F03 		and	r3, r1, #127
 1990 002e 5B01     		lsls	r3, r3, #5
 1991 0030 2833     		adds	r3, r3, #40
 1992 0032 0344     		add	r3, r3, r0
 1993              	.LVL200:
 1994 0034 ECE7     		b	.L163
 1995              	.LVL201:
 1996              	.L168:
 1997 0036 0446     		mov	r4, r0
1052:Drivers/STM32F1xx_HAL_Driver/Src/stm32f1xx_hal_pcd.c ****   USB_EPClearStall(hpcd->Instance , ep);
 1998              		.loc 1 1052 0 discriminator 2
 1999 0038 0122     		movs	r2, #1
 2000 003a 80F82824 		strb	r2, [r0, #1064]
1053:Drivers/STM32F1xx_HAL_Driver/Src/stm32f1xx_hal_pcd.c ****   __HAL_UNLOCK(hpcd); 
 2001              		.loc 1 1053 0 discriminator 2
 2002 003e 1946     		mov	r1, r3
 2003 0040 0068     		ldr	r0, [r0]
 2004              	.LVL202:
 2005 0042 FFF7FEFF 		bl	USB_EPClearStall
 2006              	.LVL203:
1054:Drivers/STM32F1xx_HAL_Driver/Src/stm32f1xx_hal_pcd.c ****   
 2007              		.loc 1 1054 0 discriminator 2
 2008 0046 0020     		movs	r0, #0
 2009 0048 84F82804 		strb	r0, [r4, #1064]
1056:Drivers/STM32F1xx_HAL_Driver/Src/stm32f1xx_hal_pcd.c **** }
 2010              		.loc 1 1056 0 discriminator 2
 2011 004c 10BD     		pop	{r4, pc}
 2012              		.cfi_endproc
 2013              	.LFE91:
 2015              		.section	.text.HAL_PCD_EP_Flush,"ax",%progbits
 2016              		.align	1
 2017              		.global	HAL_PCD_EP_Flush
 2018              		.syntax unified
 2019              		.thumb
 2020              		.thumb_func
 2021              		.fpu softvfp
 2023              	HAL_PCD_EP_Flush:
 2024              	.LFB92:
1066:Drivers/STM32F1xx_HAL_Driver/Src/stm32f1xx_hal_pcd.c ****   __HAL_LOCK(hpcd);
 2025              		.loc 1 1066 0
 2026              		.cfi_startproc
 2027              		@ args = 0, pretend = 0, frame = 0
 2028              		@ frame_needed = 0, uses_anonymous_args = 0
 2029              	.LVL204:
1067:Drivers/STM32F1xx_HAL_Driver/Src/stm32f1xx_hal_pcd.c ****   
 2030              		.loc 1 1067 0
 2031 0000 90F82834 		ldrb	r3, [r0, #1064]	@ zero_extendqisi2
 2032 0004 012B     		cmp	r3, #1
 2033 0006 14D0     		beq	.L173
1066:Drivers/STM32F1xx_HAL_Driver/Src/stm32f1xx_hal_pcd.c ****   __HAL_LOCK(hpcd);
 2034              		.loc 1 1066 0 discriminator 2
ARM GAS  /tmp/cc956sXB.s 			page 63


 2035 0008 10B5     		push	{r4, lr}
 2036              	.LCFI21:
 2037              		.cfi_def_cfa_offset 8
 2038              		.cfi_offset 4, -8
 2039              		.cfi_offset 14, -4
 2040 000a 0446     		mov	r4, r0
1067:Drivers/STM32F1xx_HAL_Driver/Src/stm32f1xx_hal_pcd.c ****   
 2041              		.loc 1 1067 0 discriminator 2
 2042 000c 0123     		movs	r3, #1
 2043 000e 80F82834 		strb	r3, [r0, #1064]
1069:Drivers/STM32F1xx_HAL_Driver/Src/stm32f1xx_hal_pcd.c ****   {
 2044              		.loc 1 1069 0 discriminator 2
 2045 0012 11F0800F 		tst	r1, #128
 2046 0016 06D1     		bne	.L178
1075:Drivers/STM32F1xx_HAL_Driver/Src/stm32f1xx_hal_pcd.c ****   }
 2047              		.loc 1 1075 0
 2048 0018 0068     		ldr	r0, [r0]
 2049              	.LVL205:
 2050 001a FFF7FEFF 		bl	USB_FlushRxFifo
 2051              	.LVL206:
 2052              	.L172:
1078:Drivers/STM32F1xx_HAL_Driver/Src/stm32f1xx_hal_pcd.c ****   
 2053              		.loc 1 1078 0
 2054 001e 0020     		movs	r0, #0
 2055 0020 84F82804 		strb	r0, [r4, #1064]
1080:Drivers/STM32F1xx_HAL_Driver/Src/stm32f1xx_hal_pcd.c **** }
 2056              		.loc 1 1080 0
 2057 0024 10BD     		pop	{r4, pc}
 2058              	.LVL207:
 2059              	.L178:
1071:Drivers/STM32F1xx_HAL_Driver/Src/stm32f1xx_hal_pcd.c ****   }
 2060              		.loc 1 1071 0
 2061 0026 01F07F01 		and	r1, r1, #127
 2062              	.LVL208:
 2063 002a 0068     		ldr	r0, [r0]
 2064              	.LVL209:
 2065 002c FFF7FEFF 		bl	USB_FlushTxFifo
 2066              	.LVL210:
 2067 0030 F5E7     		b	.L172
 2068              	.LVL211:
 2069              	.L173:
 2070              	.LCFI22:
 2071              		.cfi_def_cfa_offset 0
 2072              		.cfi_restore 4
 2073              		.cfi_restore 14
1067:Drivers/STM32F1xx_HAL_Driver/Src/stm32f1xx_hal_pcd.c ****   
 2074              		.loc 1 1067 0
 2075 0032 0220     		movs	r0, #2
 2076              	.LVL212:
 2077 0034 7047     		bx	lr
 2078              		.cfi_endproc
 2079              	.LFE92:
 2081              		.section	.text.HAL_PCD_ActivateRemoteWakeup,"ax",%progbits
 2082              		.align	1
 2083              		.global	HAL_PCD_ActivateRemoteWakeup
 2084              		.syntax unified
 2085              		.thumb
ARM GAS  /tmp/cc956sXB.s 			page 64


 2086              		.thumb_func
 2087              		.fpu softvfp
 2089              	HAL_PCD_ActivateRemoteWakeup:
 2090              	.LFB93:
1089:Drivers/STM32F1xx_HAL_Driver/Src/stm32f1xx_hal_pcd.c ****   return(USB_ActivateRemoteWakeup(hpcd->Instance));
 2091              		.loc 1 1089 0
 2092              		.cfi_startproc
 2093              		@ args = 0, pretend = 0, frame = 0
 2094              		@ frame_needed = 0, uses_anonymous_args = 0
 2095              	.LVL213:
 2096 0000 08B5     		push	{r3, lr}
 2097              	.LCFI23:
 2098              		.cfi_def_cfa_offset 8
 2099              		.cfi_offset 3, -8
 2100              		.cfi_offset 14, -4
1090:Drivers/STM32F1xx_HAL_Driver/Src/stm32f1xx_hal_pcd.c **** }
 2101              		.loc 1 1090 0
 2102 0002 0068     		ldr	r0, [r0]
 2103              	.LVL214:
 2104 0004 FFF7FEFF 		bl	USB_ActivateRemoteWakeup
 2105              	.LVL215:
1091:Drivers/STM32F1xx_HAL_Driver/Src/stm32f1xx_hal_pcd.c **** 
 2106              		.loc 1 1091 0
 2107 0008 08BD     		pop	{r3, pc}
 2108              		.cfi_endproc
 2109              	.LFE93:
 2111              		.section	.text.HAL_PCD_DeActivateRemoteWakeup,"ax",%progbits
 2112              		.align	1
 2113              		.global	HAL_PCD_DeActivateRemoteWakeup
 2114              		.syntax unified
 2115              		.thumb
 2116              		.thumb_func
 2117              		.fpu softvfp
 2119              	HAL_PCD_DeActivateRemoteWakeup:
 2120              	.LFB94:
1099:Drivers/STM32F1xx_HAL_Driver/Src/stm32f1xx_hal_pcd.c ****   return(USB_DeActivateRemoteWakeup(hpcd->Instance));
 2121              		.loc 1 1099 0
 2122              		.cfi_startproc
 2123              		@ args = 0, pretend = 0, frame = 0
 2124              		@ frame_needed = 0, uses_anonymous_args = 0
 2125              	.LVL216:
 2126 0000 08B5     		push	{r3, lr}
 2127              	.LCFI24:
 2128              		.cfi_def_cfa_offset 8
 2129              		.cfi_offset 3, -8
 2130              		.cfi_offset 14, -4
1100:Drivers/STM32F1xx_HAL_Driver/Src/stm32f1xx_hal_pcd.c **** }
 2131              		.loc 1 1100 0
 2132 0002 0068     		ldr	r0, [r0]
 2133              	.LVL217:
 2134 0004 FFF7FEFF 		bl	USB_DeActivateRemoteWakeup
 2135              	.LVL218:
1101:Drivers/STM32F1xx_HAL_Driver/Src/stm32f1xx_hal_pcd.c **** /**
 2136              		.loc 1 1101 0
 2137 0008 08BD     		pop	{r3, pc}
 2138              		.cfi_endproc
 2139              	.LFE94:
ARM GAS  /tmp/cc956sXB.s 			page 65


 2141              		.section	.text.HAL_PCD_GetState,"ax",%progbits
 2142              		.align	1
 2143              		.global	HAL_PCD_GetState
 2144              		.syntax unified
 2145              		.thumb
 2146              		.thumb_func
 2147              		.fpu softvfp
 2149              	HAL_PCD_GetState:
 2150              	.LFB95:
1127:Drivers/STM32F1xx_HAL_Driver/Src/stm32f1xx_hal_pcd.c ****   return hpcd->State;
 2151              		.loc 1 1127 0
 2152              		.cfi_startproc
 2153              		@ args = 0, pretend = 0, frame = 0
 2154              		@ frame_needed = 0, uses_anonymous_args = 0
 2155              		@ link register save eliminated.
 2156              	.LVL219:
1128:Drivers/STM32F1xx_HAL_Driver/Src/stm32f1xx_hal_pcd.c **** }
 2157              		.loc 1 1128 0
 2158 0000 90F82904 		ldrb	r0, [r0, #1065]	@ zero_extendqisi2
 2159              	.LVL220:
1129:Drivers/STM32F1xx_HAL_Driver/Src/stm32f1xx_hal_pcd.c **** 
 2160              		.loc 1 1129 0
 2161 0004 7047     		bx	lr
 2162              		.cfi_endproc
 2163              	.LFE95:
 2165              		.text
 2166              	.Letext0:
 2167              		.file 2 "/home/mpitiot/opt/gcc-arm-none-eabi-6-2017-q1-update/arm-none-eabi/include/machine/_defau
 2168              		.file 3 "/home/mpitiot/opt/gcc-arm-none-eabi-6-2017-q1-update/arm-none-eabi/include/sys/_stdint.h"
 2169              		.file 4 "Drivers/CMSIS/Include/core_cm3.h"
 2170              		.file 5 "Drivers/CMSIS/Device/ST/STM32F1xx/Include/system_stm32f1xx.h"
 2171              		.file 6 "Drivers/CMSIS/Device/ST/STM32F1xx/Include/stm32f103xb.h"
 2172              		.file 7 "/home/mpitiot/opt/gcc-arm-none-eabi-6-2017-q1-update/arm-none-eabi/include/sys/lock.h"
 2173              		.file 8 "/home/mpitiot/opt/gcc-arm-none-eabi-6-2017-q1-update/arm-none-eabi/include/sys/_types.h"
 2174              		.file 9 "/home/mpitiot/opt/gcc-arm-none-eabi-6-2017-q1-update/lib/gcc/arm-none-eabi/6.3.1/include/
 2175              		.file 10 "/home/mpitiot/opt/gcc-arm-none-eabi-6-2017-q1-update/arm-none-eabi/include/sys/reent.h"
 2176              		.file 11 "Drivers/STM32F1xx_HAL_Driver/Inc/stm32f1xx_hal_def.h"
 2177              		.file 12 "Drivers/STM32F1xx_HAL_Driver/Inc/stm32f1xx_ll_usb.h"
 2178              		.file 13 "Drivers/STM32F1xx_HAL_Driver/Inc/stm32f1xx_hal_pcd.h"
 2179              		.file 14 "Drivers/STM32F1xx_HAL_Driver/Inc/stm32f1xx_hal_pcd_ex.h"
ARM GAS  /tmp/cc956sXB.s 			page 66

