ARM GAS  /tmp/cc1DPckA.s 			page 1


   1              		.cpu cortex-m3
   2              		.eabi_attribute 20, 1
   3              		.eabi_attribute 21, 1
   4              		.eabi_attribute 23, 3
   5              		.eabi_attribute 24, 1
   6              		.eabi_attribute 25, 1
   7              		.eabi_attribute 26, 1
   8              		.eabi_attribute 30, 1
   9              		.eabi_attribute 34, 1
  10              		.eabi_attribute 18, 4
  11              		.file	"stm32f1xx_it.c"
  12              		.text
  13              	.Ltext0:
  14              		.cfi_sections	.debug_frame
  15              		.section	.text.NMI_Handler,"ax",%progbits
  16              		.align	1
  17              		.global	NMI_Handler
  18              		.syntax unified
  19              		.thumb
  20              		.thumb_func
  21              		.fpu softvfp
  23              	NMI_Handler:
  24              	.LFB64:
  25              		.file 1 "Src/stm32f1xx_it.c"
   1:Src/stm32f1xx_it.c **** /**
   2:Src/stm32f1xx_it.c ****   ******************************************************************************
   3:Src/stm32f1xx_it.c ****   * @file    stm32f1xx_it.c
   4:Src/stm32f1xx_it.c ****   * @brief   Interrupt Service Routines.
   5:Src/stm32f1xx_it.c ****   ******************************************************************************
   6:Src/stm32f1xx_it.c ****   *
   7:Src/stm32f1xx_it.c ****   * COPYRIGHT(c) 2017 STMicroelectronics
   8:Src/stm32f1xx_it.c ****   *
   9:Src/stm32f1xx_it.c ****   * Redistribution and use in source and binary forms, with or without modification,
  10:Src/stm32f1xx_it.c ****   * are permitted provided that the following conditions are met:
  11:Src/stm32f1xx_it.c ****   *   1. Redistributions of source code must retain the above copyright notice,
  12:Src/stm32f1xx_it.c ****   *      this list of conditions and the following disclaimer.
  13:Src/stm32f1xx_it.c ****   *   2. Redistributions in binary form must reproduce the above copyright notice,
  14:Src/stm32f1xx_it.c ****   *      this list of conditions and the following disclaimer in the documentation
  15:Src/stm32f1xx_it.c ****   *      and/or other materials provided with the distribution.
  16:Src/stm32f1xx_it.c ****   *   3. Neither the name of STMicroelectronics nor the names of its contributors
  17:Src/stm32f1xx_it.c ****   *      may be used to endorse or promote products derived from this software
  18:Src/stm32f1xx_it.c ****   *      without specific prior written permission.
  19:Src/stm32f1xx_it.c ****   *
  20:Src/stm32f1xx_it.c ****   * THIS SOFTWARE IS PROVIDED BY THE COPYRIGHT HOLDERS AND CONTRIBUTORS "AS IS"
  21:Src/stm32f1xx_it.c ****   * AND ANY EXPRESS OR IMPLIED WARRANTIES, INCLUDING, BUT NOT LIMITED TO, THE
  22:Src/stm32f1xx_it.c ****   * IMPLIED WARRANTIES OF MERCHANTABILITY AND FITNESS FOR A PARTICULAR PURPOSE ARE
  23:Src/stm32f1xx_it.c ****   * DISCLAIMED. IN NO EVENT SHALL THE COPYRIGHT HOLDER OR CONTRIBUTORS BE LIABLE
  24:Src/stm32f1xx_it.c ****   * FOR ANY DIRECT, INDIRECT, INCIDENTAL, SPECIAL, EXEMPLARY, OR CONSEQUENTIAL
  25:Src/stm32f1xx_it.c ****   * DAMAGES (INCLUDING, BUT NOT LIMITED TO, PROCUREMENT OF SUBSTITUTE GOODS OR
  26:Src/stm32f1xx_it.c ****   * SERVICES; LOSS OF USE, DATA, OR PROFITS; OR BUSINESS INTERRUPTION) HOWEVER
  27:Src/stm32f1xx_it.c ****   * CAUSED AND ON ANY THEORY OF LIABILITY, WHETHER IN CONTRACT, STRICT LIABILITY,
  28:Src/stm32f1xx_it.c ****   * OR TORT (INCLUDING NEGLIGENCE OR OTHERWISE) ARISING IN ANY WAY OUT OF THE USE
  29:Src/stm32f1xx_it.c ****   * OF THIS SOFTWARE, EVEN IF ADVISED OF THE POSSIBILITY OF SUCH DAMAGE.
  30:Src/stm32f1xx_it.c ****   *
  31:Src/stm32f1xx_it.c ****   ******************************************************************************
  32:Src/stm32f1xx_it.c ****   */
  33:Src/stm32f1xx_it.c **** /* Includes ------------------------------------------------------------------*/
ARM GAS  /tmp/cc1DPckA.s 			page 2


  34:Src/stm32f1xx_it.c **** #include "stm32f1xx_hal.h"
  35:Src/stm32f1xx_it.c **** #include "stm32f1xx.h"
  36:Src/stm32f1xx_it.c **** #include "stm32f1xx_it.h"
  37:Src/stm32f1xx_it.c **** 
  38:Src/stm32f1xx_it.c **** /* USER CODE BEGIN 0 */
  39:Src/stm32f1xx_it.c **** 
  40:Src/stm32f1xx_it.c **** /* USER CODE END 0 */
  41:Src/stm32f1xx_it.c **** 
  42:Src/stm32f1xx_it.c **** /* External variables --------------------------------------------------------*/
  43:Src/stm32f1xx_it.c **** extern PCD_HandleTypeDef hpcd_USB_FS;
  44:Src/stm32f1xx_it.c **** 
  45:Src/stm32f1xx_it.c **** /******************************************************************************/
  46:Src/stm32f1xx_it.c **** /*            Cortex-M3 Processor Interruption and Exception Handlers         */ 
  47:Src/stm32f1xx_it.c **** /******************************************************************************/
  48:Src/stm32f1xx_it.c **** 
  49:Src/stm32f1xx_it.c **** /**
  50:Src/stm32f1xx_it.c **** * @brief This function handles Non maskable interrupt.
  51:Src/stm32f1xx_it.c **** */
  52:Src/stm32f1xx_it.c **** void NMI_Handler(void)
  53:Src/stm32f1xx_it.c **** {
  26              		.loc 1 53 0
  27              		.cfi_startproc
  28              		@ args = 0, pretend = 0, frame = 0
  29              		@ frame_needed = 0, uses_anonymous_args = 0
  30 0000 08B5     		push	{r3, lr}
  31              	.LCFI0:
  32              		.cfi_def_cfa_offset 8
  33              		.cfi_offset 3, -8
  34              		.cfi_offset 14, -4
  54:Src/stm32f1xx_it.c ****   /* USER CODE BEGIN NonMaskableInt_IRQn 0 */
  55:Src/stm32f1xx_it.c **** 
  56:Src/stm32f1xx_it.c ****   /* USER CODE END NonMaskableInt_IRQn 0 */
  57:Src/stm32f1xx_it.c ****   HAL_RCC_NMI_IRQHandler();
  35              		.loc 1 57 0
  36 0002 FFF7FEFF 		bl	HAL_RCC_NMI_IRQHandler
  37              	.LVL0:
  38 0006 08BD     		pop	{r3, pc}
  39              		.cfi_endproc
  40              	.LFE64:
  42              		.section	.text.HardFault_Handler,"ax",%progbits
  43              		.align	1
  44              		.global	HardFault_Handler
  45              		.syntax unified
  46              		.thumb
  47              		.thumb_func
  48              		.fpu softvfp
  50              	HardFault_Handler:
  51              	.LFB65:
  58:Src/stm32f1xx_it.c ****   /* USER CODE BEGIN NonMaskableInt_IRQn 1 */
  59:Src/stm32f1xx_it.c **** 
  60:Src/stm32f1xx_it.c ****   /* USER CODE END NonMaskableInt_IRQn 1 */
  61:Src/stm32f1xx_it.c **** }
  62:Src/stm32f1xx_it.c **** 
  63:Src/stm32f1xx_it.c **** /**
  64:Src/stm32f1xx_it.c **** * @brief This function handles Hard fault interrupt.
  65:Src/stm32f1xx_it.c **** */
  66:Src/stm32f1xx_it.c **** void HardFault_Handler(void)
ARM GAS  /tmp/cc1DPckA.s 			page 3


  67:Src/stm32f1xx_it.c **** {
  52              		.loc 1 67 0
  53              		.cfi_startproc
  54              		@ Volatile: function does not return.
  55              		@ args = 0, pretend = 0, frame = 0
  56              		@ frame_needed = 0, uses_anonymous_args = 0
  57              		@ link register save eliminated.
  58              	.L4:
  59 0000 FEE7     		b	.L4
  60              		.cfi_endproc
  61              	.LFE65:
  63              		.section	.text.MemManage_Handler,"ax",%progbits
  64              		.align	1
  65              		.global	MemManage_Handler
  66              		.syntax unified
  67              		.thumb
  68              		.thumb_func
  69              		.fpu softvfp
  71              	MemManage_Handler:
  72              	.LFB66:
  68:Src/stm32f1xx_it.c ****   /* USER CODE BEGIN HardFault_IRQn 0 */
  69:Src/stm32f1xx_it.c **** 
  70:Src/stm32f1xx_it.c ****   /* USER CODE END HardFault_IRQn 0 */
  71:Src/stm32f1xx_it.c ****   while (1)
  72:Src/stm32f1xx_it.c ****   {
  73:Src/stm32f1xx_it.c ****   }
  74:Src/stm32f1xx_it.c ****   /* USER CODE BEGIN HardFault_IRQn 1 */
  75:Src/stm32f1xx_it.c **** 
  76:Src/stm32f1xx_it.c ****   /* USER CODE END HardFault_IRQn 1 */
  77:Src/stm32f1xx_it.c **** }
  78:Src/stm32f1xx_it.c **** 
  79:Src/stm32f1xx_it.c **** /**
  80:Src/stm32f1xx_it.c **** * @brief This function handles Memory management fault.
  81:Src/stm32f1xx_it.c **** */
  82:Src/stm32f1xx_it.c **** void MemManage_Handler(void)
  83:Src/stm32f1xx_it.c **** {
  73              		.loc 1 83 0
  74              		.cfi_startproc
  75              		@ Volatile: function does not return.
  76              		@ args = 0, pretend = 0, frame = 0
  77              		@ frame_needed = 0, uses_anonymous_args = 0
  78              		@ link register save eliminated.
  79              	.L6:
  80 0000 FEE7     		b	.L6
  81              		.cfi_endproc
  82              	.LFE66:
  84              		.section	.text.BusFault_Handler,"ax",%progbits
  85              		.align	1
  86              		.global	BusFault_Handler
  87              		.syntax unified
  88              		.thumb
  89              		.thumb_func
  90              		.fpu softvfp
  92              	BusFault_Handler:
  93              	.LFB67:
  84:Src/stm32f1xx_it.c ****   /* USER CODE BEGIN MemoryManagement_IRQn 0 */
  85:Src/stm32f1xx_it.c **** 
ARM GAS  /tmp/cc1DPckA.s 			page 4


  86:Src/stm32f1xx_it.c ****   /* USER CODE END MemoryManagement_IRQn 0 */
  87:Src/stm32f1xx_it.c ****   while (1)
  88:Src/stm32f1xx_it.c ****   {
  89:Src/stm32f1xx_it.c ****   }
  90:Src/stm32f1xx_it.c ****   /* USER CODE BEGIN MemoryManagement_IRQn 1 */
  91:Src/stm32f1xx_it.c **** 
  92:Src/stm32f1xx_it.c ****   /* USER CODE END MemoryManagement_IRQn 1 */
  93:Src/stm32f1xx_it.c **** }
  94:Src/stm32f1xx_it.c **** 
  95:Src/stm32f1xx_it.c **** /**
  96:Src/stm32f1xx_it.c **** * @brief This function handles Prefetch fault, memory access fault.
  97:Src/stm32f1xx_it.c **** */
  98:Src/stm32f1xx_it.c **** void BusFault_Handler(void)
  99:Src/stm32f1xx_it.c **** {
  94              		.loc 1 99 0
  95              		.cfi_startproc
  96              		@ Volatile: function does not return.
  97              		@ args = 0, pretend = 0, frame = 0
  98              		@ frame_needed = 0, uses_anonymous_args = 0
  99              		@ link register save eliminated.
 100              	.L8:
 101 0000 FEE7     		b	.L8
 102              		.cfi_endproc
 103              	.LFE67:
 105              		.section	.text.UsageFault_Handler,"ax",%progbits
 106              		.align	1
 107              		.global	UsageFault_Handler
 108              		.syntax unified
 109              		.thumb
 110              		.thumb_func
 111              		.fpu softvfp
 113              	UsageFault_Handler:
 114              	.LFB68:
 100:Src/stm32f1xx_it.c ****   /* USER CODE BEGIN BusFault_IRQn 0 */
 101:Src/stm32f1xx_it.c **** 
 102:Src/stm32f1xx_it.c ****   /* USER CODE END BusFault_IRQn 0 */
 103:Src/stm32f1xx_it.c ****   while (1)
 104:Src/stm32f1xx_it.c ****   {
 105:Src/stm32f1xx_it.c ****   }
 106:Src/stm32f1xx_it.c ****   /* USER CODE BEGIN BusFault_IRQn 1 */
 107:Src/stm32f1xx_it.c **** 
 108:Src/stm32f1xx_it.c ****   /* USER CODE END BusFault_IRQn 1 */
 109:Src/stm32f1xx_it.c **** }
 110:Src/stm32f1xx_it.c **** 
 111:Src/stm32f1xx_it.c **** /**
 112:Src/stm32f1xx_it.c **** * @brief This function handles Undefined instruction or illegal state.
 113:Src/stm32f1xx_it.c **** */
 114:Src/stm32f1xx_it.c **** void UsageFault_Handler(void)
 115:Src/stm32f1xx_it.c **** {
 115              		.loc 1 115 0
 116              		.cfi_startproc
 117              		@ Volatile: function does not return.
 118              		@ args = 0, pretend = 0, frame = 0
 119              		@ frame_needed = 0, uses_anonymous_args = 0
 120              		@ link register save eliminated.
 121              	.L10:
 122 0000 FEE7     		b	.L10
ARM GAS  /tmp/cc1DPckA.s 			page 5


 123              		.cfi_endproc
 124              	.LFE68:
 126              		.section	.text.SVC_Handler,"ax",%progbits
 127              		.align	1
 128              		.global	SVC_Handler
 129              		.syntax unified
 130              		.thumb
 131              		.thumb_func
 132              		.fpu softvfp
 134              	SVC_Handler:
 135              	.LFB69:
 116:Src/stm32f1xx_it.c ****   /* USER CODE BEGIN UsageFault_IRQn 0 */
 117:Src/stm32f1xx_it.c **** 
 118:Src/stm32f1xx_it.c ****   /* USER CODE END UsageFault_IRQn 0 */
 119:Src/stm32f1xx_it.c ****   while (1)
 120:Src/stm32f1xx_it.c ****   {
 121:Src/stm32f1xx_it.c ****   }
 122:Src/stm32f1xx_it.c ****   /* USER CODE BEGIN UsageFault_IRQn 1 */
 123:Src/stm32f1xx_it.c **** 
 124:Src/stm32f1xx_it.c ****   /* USER CODE END UsageFault_IRQn 1 */
 125:Src/stm32f1xx_it.c **** }
 126:Src/stm32f1xx_it.c **** 
 127:Src/stm32f1xx_it.c **** /**
 128:Src/stm32f1xx_it.c **** * @brief This function handles System service call via SWI instruction.
 129:Src/stm32f1xx_it.c **** */
 130:Src/stm32f1xx_it.c **** void SVC_Handler(void)
 131:Src/stm32f1xx_it.c **** {
 136              		.loc 1 131 0
 137              		.cfi_startproc
 138              		@ args = 0, pretend = 0, frame = 0
 139              		@ frame_needed = 0, uses_anonymous_args = 0
 140              		@ link register save eliminated.
 141 0000 7047     		bx	lr
 142              		.cfi_endproc
 143              	.LFE69:
 145              		.section	.text.DebugMon_Handler,"ax",%progbits
 146              		.align	1
 147              		.global	DebugMon_Handler
 148              		.syntax unified
 149              		.thumb
 150              		.thumb_func
 151              		.fpu softvfp
 153              	DebugMon_Handler:
 154              	.LFB70:
 132:Src/stm32f1xx_it.c ****   /* USER CODE BEGIN SVCall_IRQn 0 */
 133:Src/stm32f1xx_it.c **** 
 134:Src/stm32f1xx_it.c ****   /* USER CODE END SVCall_IRQn 0 */
 135:Src/stm32f1xx_it.c ****   /* USER CODE BEGIN SVCall_IRQn 1 */
 136:Src/stm32f1xx_it.c **** 
 137:Src/stm32f1xx_it.c ****   /* USER CODE END SVCall_IRQn 1 */
 138:Src/stm32f1xx_it.c **** }
 139:Src/stm32f1xx_it.c **** 
 140:Src/stm32f1xx_it.c **** /**
 141:Src/stm32f1xx_it.c **** * @brief This function handles Debug monitor.
 142:Src/stm32f1xx_it.c **** */
 143:Src/stm32f1xx_it.c **** void DebugMon_Handler(void)
 144:Src/stm32f1xx_it.c **** {
ARM GAS  /tmp/cc1DPckA.s 			page 6


 155              		.loc 1 144 0
 156              		.cfi_startproc
 157              		@ args = 0, pretend = 0, frame = 0
 158              		@ frame_needed = 0, uses_anonymous_args = 0
 159              		@ link register save eliminated.
 160 0000 7047     		bx	lr
 161              		.cfi_endproc
 162              	.LFE70:
 164              		.section	.text.PendSV_Handler,"ax",%progbits
 165              		.align	1
 166              		.global	PendSV_Handler
 167              		.syntax unified
 168              		.thumb
 169              		.thumb_func
 170              		.fpu softvfp
 172              	PendSV_Handler:
 173              	.LFB71:
 145:Src/stm32f1xx_it.c ****   /* USER CODE BEGIN DebugMonitor_IRQn 0 */
 146:Src/stm32f1xx_it.c **** 
 147:Src/stm32f1xx_it.c ****   /* USER CODE END DebugMonitor_IRQn 0 */
 148:Src/stm32f1xx_it.c ****   /* USER CODE BEGIN DebugMonitor_IRQn 1 */
 149:Src/stm32f1xx_it.c **** 
 150:Src/stm32f1xx_it.c ****   /* USER CODE END DebugMonitor_IRQn 1 */
 151:Src/stm32f1xx_it.c **** }
 152:Src/stm32f1xx_it.c **** 
 153:Src/stm32f1xx_it.c **** /**
 154:Src/stm32f1xx_it.c **** * @brief This function handles Pendable request for system service.
 155:Src/stm32f1xx_it.c **** */
 156:Src/stm32f1xx_it.c **** void PendSV_Handler(void)
 157:Src/stm32f1xx_it.c **** {
 174              		.loc 1 157 0
 175              		.cfi_startproc
 176              		@ args = 0, pretend = 0, frame = 0
 177              		@ frame_needed = 0, uses_anonymous_args = 0
 178              		@ link register save eliminated.
 179 0000 7047     		bx	lr
 180              		.cfi_endproc
 181              	.LFE71:
 183              		.section	.text.SysTick_Handler,"ax",%progbits
 184              		.align	1
 185              		.global	SysTick_Handler
 186              		.syntax unified
 187              		.thumb
 188              		.thumb_func
 189              		.fpu softvfp
 191              	SysTick_Handler:
 192              	.LFB72:
 158:Src/stm32f1xx_it.c ****   /* USER CODE BEGIN PendSV_IRQn 0 */
 159:Src/stm32f1xx_it.c **** 
 160:Src/stm32f1xx_it.c ****   /* USER CODE END PendSV_IRQn 0 */
 161:Src/stm32f1xx_it.c ****   /* USER CODE BEGIN PendSV_IRQn 1 */
 162:Src/stm32f1xx_it.c **** 
 163:Src/stm32f1xx_it.c ****   /* USER CODE END PendSV_IRQn 1 */
 164:Src/stm32f1xx_it.c **** }
 165:Src/stm32f1xx_it.c **** 
 166:Src/stm32f1xx_it.c **** /**
 167:Src/stm32f1xx_it.c **** * @brief This function handles System tick timer.
ARM GAS  /tmp/cc1DPckA.s 			page 7


 168:Src/stm32f1xx_it.c **** */
 169:Src/stm32f1xx_it.c **** void SysTick_Handler(void)
 170:Src/stm32f1xx_it.c **** {
 193              		.loc 1 170 0
 194              		.cfi_startproc
 195              		@ args = 0, pretend = 0, frame = 0
 196              		@ frame_needed = 0, uses_anonymous_args = 0
 197              		.loc 1 170 0
 198 0000 08B5     		push	{r3, lr}
 199              	.LCFI1:
 200              		.cfi_def_cfa_offset 8
 201              		.cfi_offset 3, -8
 202              		.cfi_offset 14, -4
 171:Src/stm32f1xx_it.c ****   /* USER CODE BEGIN SysTick_IRQn 0 */
 172:Src/stm32f1xx_it.c **** 
 173:Src/stm32f1xx_it.c ****   /* USER CODE END SysTick_IRQn 0 */
 174:Src/stm32f1xx_it.c ****   HAL_IncTick();
 203              		.loc 1 174 0
 204 0002 FFF7FEFF 		bl	HAL_IncTick
 205              	.LVL1:
 175:Src/stm32f1xx_it.c ****   HAL_SYSTICK_IRQHandler();
 206              		.loc 1 175 0
 207 0006 FFF7FEFF 		bl	HAL_SYSTICK_IRQHandler
 208              	.LVL2:
 209 000a 08BD     		pop	{r3, pc}
 210              		.cfi_endproc
 211              	.LFE72:
 213              		.section	.text.USB_LP_CAN1_RX0_IRQHandler,"ax",%progbits
 214              		.align	1
 215              		.global	USB_LP_CAN1_RX0_IRQHandler
 216              		.syntax unified
 217              		.thumb
 218              		.thumb_func
 219              		.fpu softvfp
 221              	USB_LP_CAN1_RX0_IRQHandler:
 222              	.LFB73:
 176:Src/stm32f1xx_it.c ****   /* USER CODE BEGIN SysTick_IRQn 1 */
 177:Src/stm32f1xx_it.c **** 
 178:Src/stm32f1xx_it.c ****   /* USER CODE END SysTick_IRQn 1 */
 179:Src/stm32f1xx_it.c **** }
 180:Src/stm32f1xx_it.c **** 
 181:Src/stm32f1xx_it.c **** /******************************************************************************/
 182:Src/stm32f1xx_it.c **** /* STM32F1xx Peripheral Interrupt Handlers                                    */
 183:Src/stm32f1xx_it.c **** /* Add here the Interrupt Handlers for the used peripherals.                  */
 184:Src/stm32f1xx_it.c **** /* For the available peripheral interrupt handler names,                      */
 185:Src/stm32f1xx_it.c **** /* please refer to the startup file (startup_stm32f1xx.s).                    */
 186:Src/stm32f1xx_it.c **** /******************************************************************************/
 187:Src/stm32f1xx_it.c **** 
 188:Src/stm32f1xx_it.c **** /**
 189:Src/stm32f1xx_it.c **** * @brief This function handles USB low priority or CAN RX0 interrupts.
 190:Src/stm32f1xx_it.c **** */
 191:Src/stm32f1xx_it.c **** void USB_LP_CAN1_RX0_IRQHandler(void)
 192:Src/stm32f1xx_it.c **** {
 223              		.loc 1 192 0
 224              		.cfi_startproc
 225              		@ args = 0, pretend = 0, frame = 0
 226              		@ frame_needed = 0, uses_anonymous_args = 0
ARM GAS  /tmp/cc1DPckA.s 			page 8


 227 0000 08B5     		push	{r3, lr}
 228              	.LCFI2:
 229              		.cfi_def_cfa_offset 8
 230              		.cfi_offset 3, -8
 231              		.cfi_offset 14, -4
 193:Src/stm32f1xx_it.c ****   /* USER CODE BEGIN USB_LP_CAN1_RX0_IRQn 0 */
 194:Src/stm32f1xx_it.c **** 
 195:Src/stm32f1xx_it.c ****   /* USER CODE END USB_LP_CAN1_RX0_IRQn 0 */
 196:Src/stm32f1xx_it.c ****   HAL_PCD_IRQHandler(&hpcd_USB_FS);
 232              		.loc 1 196 0
 233 0002 0248     		ldr	r0, .L18
 234 0004 FFF7FEFF 		bl	HAL_PCD_IRQHandler
 235              	.LVL3:
 236 0008 08BD     		pop	{r3, pc}
 237              	.L19:
 238 000a 00BF     		.align	2
 239              	.L18:
 240 000c 00000000 		.word	hpcd_USB_FS
 241              		.cfi_endproc
 242              	.LFE73:
 244              		.text
 245              	.Letext0:
 246              		.file 2 "/home/mpitiot/opt/gcc-arm-none-eabi-6-2017-q1-update/arm-none-eabi/include/machine/_defau
 247              		.file 3 "/home/mpitiot/opt/gcc-arm-none-eabi-6-2017-q1-update/arm-none-eabi/include/sys/_stdint.h"
 248              		.file 4 "Drivers/CMSIS/Include/core_cm3.h"
 249              		.file 5 "Drivers/CMSIS/Device/ST/STM32F1xx/Include/system_stm32f1xx.h"
 250              		.file 6 "Drivers/CMSIS/Device/ST/STM32F1xx/Include/stm32f103xb.h"
 251              		.file 7 "/home/mpitiot/opt/gcc-arm-none-eabi-6-2017-q1-update/arm-none-eabi/include/sys/lock.h"
 252              		.file 8 "/home/mpitiot/opt/gcc-arm-none-eabi-6-2017-q1-update/arm-none-eabi/include/sys/_types.h"
 253              		.file 9 "/home/mpitiot/opt/gcc-arm-none-eabi-6-2017-q1-update/lib/gcc/arm-none-eabi/6.3.1/include/
 254              		.file 10 "/home/mpitiot/opt/gcc-arm-none-eabi-6-2017-q1-update/arm-none-eabi/include/sys/reent.h"
 255              		.file 11 "Drivers/STM32F1xx_HAL_Driver/Inc/stm32f1xx_hal_def.h"
 256              		.file 12 "Drivers/STM32F1xx_HAL_Driver/Inc/stm32f1xx_ll_usb.h"
 257              		.file 13 "Drivers/STM32F1xx_HAL_Driver/Inc/stm32f1xx_hal_pcd.h"
 258              		.file 14 "Drivers/STM32F1xx_HAL_Driver/Inc/stm32f1xx_hal.h"
 259              		.file 15 "Drivers/STM32F1xx_HAL_Driver/Inc/stm32f1xx_hal_cortex.h"
 260              		.file 16 "Drivers/STM32F1xx_HAL_Driver/Inc/stm32f1xx_hal_rcc.h"
ARM GAS  /tmp/cc1DPckA.s 			page 9

